###############################################################################
#                                                                             #
# IAR C/C++ Compiler V7.60.1.40026 for 8051             29/Apr/2014  21:58:41 #
# Copyright (C) 2004-2010 IAR Systems AB.                                     #
#                                                                             #
#    Core               =  plain                                              #
#    Code model         =  banked                                             #
#    Data model         =  large                                              #
#    Calling convention =  xdata reentrant                                    #
#    Constant location  =  data_rom                                           #
#    Dptr setup         =  1,16                                               #
#    Source file        =  C:\Users\John\Dropbox\grad_proj\zstack-cc2530-endd #
#                          evice\Projects\zstack\Samples\GenericApp\Source\Ge #
#                          nericApp.c                                         #
#    Command line       =  -f C:\Users\John\Dropbox\grad_proj\zstack-cc2530-e #
#                          nddevice\Projects\zstack\Samples\GenericApp\CC2530 #
#                          DB\..\..\..\Tools\CC2530DB\f8wEndev.cfg            #
#                          (-DCPU32MHZ -DROOT=__near_func                     #
#                          -DMAC_CFG_TX_DATA_MAX=3 -DMAC_CFG_TX_MAX=6         #
#                          -DMAC_CFG_RX_MAX=3) -f C:\Users\John\Dropbox\grad_ #
#                          proj\zstack-cc2530-enddevice\Projects\zstack\Sampl #
#                          es\GenericApp\CC2530DB\..\..\..\Tools\CC2530DB\f8w #
#                          Config.cfg (-DZIGBEEPRO -DSECURE=0                 #
#                          -DZG_SECURE_DYNAMIC=0 -DREFLECTOR                  #
#                          -DDEFAULT_CHANLIST=0x00000800                      #
#                          -DZDAPP_CONFIG_PAN_ID=0x1111                       #
#                          -DNWK_START_DELAY=100 -DEXTENDED_JOINING_RANDOM_MA #
#                          SK=0x007F -DBEACON_REQUEST_DELAY=100               #
#                          -DBEACON_REQ_DELAY_MASK=0x00FF                     #
#                          -DLINK_STATUS_JITTER_MASK=0x007F                   #
#                          -DROUTE_EXPIRY_TIME=30 -DAPSC_ACK_WAIT_DURATION_PO #
#                          LLED=3000 -DNWK_INDIRECT_MSG_TIMEOUT=7             #
#                          -DMAX_RREQ_ENTRIES=8 -DAPSC_MAX_FRAME_RETRIES=3    #
#                          -DNWK_MAX_DATA_RETRIES=2                           #
#                          -DMAX_POLL_FAILURE_RETRIES=2 -DMAX_BCAST=9         #
#                          -DAPS_MAX_GROUPS=16 -DMAX_RTG_ENTRIES=40           #
#                          -DNWK_MAX_BINDING_ENTRIES=4                        #
#                          -DMAX_BINDING_CLUSTER_IDS=4 "-DDEFAULT_KEY={0x01,  #
#                          0x03, 0x05, 0x07, 0x09, 0x0B, 0x0D, 0x0F, 0x00,    #
#                          0x02, 0x04, 0x06, 0x08, 0x0A, 0x0C, 0x0D}"         #
#                          -DMAC_MAX_FRAME_SIZE=116                           #
#                          -DZDNWKMGR_MIN_TRANSMISSIONS=20 "-DCONST=const     #
#                          __code" -DGENERIC=__generic                        #
#                          -DRFD_RCVC_ALWAYS_ON=FALSE -DPOLL_RATE=8000        #
#                          -DQUEUED_POLL_RATE=100 -DRESPONSE_POLL_RATE=100)   #
#                          -DREJOIN_POLL_RATE=440 C:\Users\John\Dropbox\grad_ #
#                          proj\zstack-cc2530-enddevice\Projects\zstack\Sampl #
#                          es\GenericApp\Source\GenericApp.c -D HAL_ADC -D    #
#                          HAL_KEY=FALSE -D HAL_LCD=FALSE -D NWK_AUTO_POLL    #
#                          -D ZTOOL_P1 -D MT_TASK -D MT_SYS_FUNC -D           #
#                          MT_ZDO_FUNC -D POWER_SAVING -D NV_STORE -lC        #
#                          C:\Users\John\Dropbox\grad_proj\zstack-cc2530-endd #
#                          evice\Projects\zstack\Samples\GenericApp\CC2530DB\ #
#                          EndDeviceEB\List\ -lA C:\Users\John\Dropbox\grad_p #
#                          roj\zstack-cc2530-enddevice\Projects\zstack\Sample #
#                          s\GenericApp\CC2530DB\EndDeviceEB\List\            #
#                          --diag_suppress Pe001,Pa010 -o                     #
#                          C:\Users\John\Dropbox\grad_proj\zstack-cc2530-endd #
#                          evice\Projects\zstack\Samples\GenericApp\CC2530DB\ #
#                          EndDeviceEB\Obj\ -e --require_prototypes           #
#                          --no_code_motion --debug --core=plain --dptr=16,1  #
#                          --data_model=large --code_model=banked             #
#                          --calling_convention=xdata_reentrant               #
#                          --place_constants=data_rom --nr_virtual_regs 16    #
#                          -I C:\Users\John\Dropbox\grad_proj\zstack-cc2530-e #
#                          nddevice\Projects\zstack\Samples\GenericApp\CC2530 #
#                          DB\ -I C:\Users\John\Dropbox\grad_proj\zstack-cc25 #
#                          30-enddevice\Projects\zstack\Samples\GenericApp\CC #
#                          2530DB\..\Source\ -I C:\Users\John\Dropbox\grad_pr #
#                          oj\zstack-cc2530-enddevice\Projects\zstack\Samples #
#                          \GenericApp\CC2530DB\..\..\..\ZMain\TI2530DB\ -I   #
#                          C:\Users\John\Dropbox\grad_proj\zstack-cc2530-endd #
#                          evice\Projects\zstack\Samples\GenericApp\CC2530DB\ #
#                          ..\..\..\..\..\Components\hal\include\ -I          #
#                          C:\Users\John\Dropbox\grad_proj\zstack-cc2530-endd #
#                          evice\Projects\zstack\Samples\GenericApp\CC2530DB\ #
#                          ..\..\..\..\..\Components\hal\target\CC2530EB\ -I  #
#                          C:\Users\John\Dropbox\grad_proj\zstack-cc2530-endd #
#                          evice\Projects\zstack\Samples\GenericApp\CC2530DB\ #
#                          ..\..\..\..\..\Components\mac\include\ -I          #
#                          C:\Users\John\Dropbox\grad_proj\zstack-cc2530-endd #
#                          evice\Projects\zstack\Samples\GenericApp\CC2530DB\ #
#                          ..\..\..\..\..\Components\mac\high_level\ -I       #
#                          C:\Users\John\Dropbox\grad_proj\zstack-cc2530-endd #
#                          evice\Projects\zstack\Samples\GenericApp\CC2530DB\ #
#                          ..\..\..\..\..\Components\mac\low_level\srf04\ -I  #
#                          C:\Users\John\Dropbox\grad_proj\zstack-cc2530-endd #
#                          evice\Projects\zstack\Samples\GenericApp\CC2530DB\ #
#                          ..\..\..\..\..\Components\mac\low_level\srf04\sing #
#                          le_chip\ -I C:\Users\John\Dropbox\grad_proj\zstack #
#                          -cc2530-enddevice\Projects\zstack\Samples\GenericA #
#                          pp\CC2530DB\..\..\..\..\..\Components\mt\ -I       #
#                          C:\Users\John\Dropbox\grad_proj\zstack-cc2530-endd #
#                          evice\Projects\zstack\Samples\GenericApp\CC2530DB\ #
#                          ..\..\..\..\..\Components\osal\include\ -I         #
#                          C:\Users\John\Dropbox\grad_proj\zstack-cc2530-endd #
#                          evice\Projects\zstack\Samples\GenericApp\CC2530DB\ #
#                          ..\..\..\..\..\Components\osal\mcu\ccsoc\ -I       #
#                          C:\Users\John\Dropbox\grad_proj\zstack-cc2530-endd #
#                          evice\Projects\zstack\Samples\GenericApp\CC2530DB\ #
#                          ..\..\..\..\..\Components\services\saddr\ -I       #
#                          C:\Users\John\Dropbox\grad_proj\zstack-cc2530-endd #
#                          evice\Projects\zstack\Samples\GenericApp\CC2530DB\ #
#                          ..\..\..\..\..\Components\services\sdata\ -I       #
#                          C:\Users\John\Dropbox\grad_proj\zstack-cc2530-endd #
#                          evice\Projects\zstack\Samples\GenericApp\CC2530DB\ #
#                          ..\..\..\..\..\Components\stack\af\ -I             #
#                          C:\Users\John\Dropbox\grad_proj\zstack-cc2530-endd #
#                          evice\Projects\zstack\Samples\GenericApp\CC2530DB\ #
#                          ..\..\..\..\..\Components\stack\nwk\ -I            #
#                          C:\Users\John\Dropbox\grad_proj\zstack-cc2530-endd #
#                          evice\Projects\zstack\Samples\GenericApp\CC2530DB\ #
#                          ..\..\..\..\..\Components\stack\sapi\ -I           #
#                          C:\Users\John\Dropbox\grad_proj\zstack-cc2530-endd #
#                          evice\Projects\zstack\Samples\GenericApp\CC2530DB\ #
#                          ..\..\..\..\..\Components\stack\sec\ -I            #
#                          C:\Users\John\Dropbox\grad_proj\zstack-cc2530-endd #
#                          evice\Projects\zstack\Samples\GenericApp\CC2530DB\ #
#                          ..\..\..\..\..\Components\stack\sys\ -I            #
#                          C:\Users\John\Dropbox\grad_proj\zstack-cc2530-endd #
#                          evice\Projects\zstack\Samples\GenericApp\CC2530DB\ #
#                          ..\..\..\..\..\Components\stack\zdo\ -I            #
#                          C:\Users\John\Dropbox\grad_proj\zstack-cc2530-endd #
#                          evice\Projects\zstack\Samples\GenericApp\CC2530DB\ #
#                          ..\..\..\..\..\Components\zmac\ -I                 #
#                          C:\Users\John\Dropbox\grad_proj\zstack-cc2530-endd #
#                          evice\Projects\zstack\Samples\GenericApp\CC2530DB\ #
#                          ..\..\..\..\..\Components\zmac\f8w\ -I             #
#                          "C:\Program Files (x86)\IAR Systems\Embedded       #
#                          Workbench 5.4\8051\INC\" -I "C:\Program Files      #
#                          (x86)\IAR Systems\Embedded Workbench               #
#                          5.4\8051\INC\CLIB\" -Ohz                           #
#    List file          =  C:\Users\John\Dropbox\grad_proj\zstack-cc2530-endd #
#                          evice\Projects\zstack\Samples\GenericApp\CC2530DB\ #
#                          EndDeviceEB\List\GenericApp.lst                    #
#    Object file        =  C:\Users\John\Dropbox\grad_proj\zstack-cc2530-endd #
#                          evice\Projects\zstack\Samples\GenericApp\CC2530DB\ #
#                          EndDeviceEB\Obj\GenericApp.r51                     #
#                                                                             #
#                                                                             #
###############################################################################

C:\Users\John\Dropbox\grad_proj\zstack-cc2530-enddevice\Projects\zstack\Samples\GenericApp\Source\GenericApp.c
      1          /**************************************************************************************************
      2            Filename:       GenericApp.c
      3            Revised:        $Date: 2009-03-18 15:56:27 -0700 (Wed, 18 Mar 2009) $
      4            Revision:       $Revision: 19453 $
      5          
      6            Description:    Generic Application (no Profile).
      7          
      8          
      9            Copyright 2004-2009 Texas Instruments Incorporated. All rights reserved.
     10          
     11            IMPORTANT: Your use of this Software is limited to those specific rights
     12            granted under the terms of a software license agreement between the user
     13            who downloaded the software, his/her employer (which must be your employer)
     14            and Texas Instruments Incorporated (the "License").  You may not use this
     15            Software unless you agree to abide by the terms of the License. The License
     16            limits your use, and you acknowledge, that the Software may not be modified,
     17            copied or distributed unless embedded on a Texas Instruments microcontroller
     18            or used solely and exclusively in conjunction with a Texas Instruments radio
     19            frequency transceiver, which is integrated into your product.  Other than for
     20            the foregoing purpose, you may not use, reproduce, copy, prepare derivative
     21            works of, modify, distribute, perform, display or sell this Software and/or
     22            its documentation for any purpose.
     23          
     24            YOU FURTHER ACKNOWLEDGE AND AGREE THAT THE SOFTWARE AND DOCUMENTATION ARE
     25            PROVIDED “AS IS?WITHOUT WARRANTY OF ANY KIND, EITHER EXPRESS OR IMPLIED, 
     26            INCLUDING WITHOUT LIMITATION, ANY WARRANTY OF MERCHANTABILITY, TITLE, 
     27            NON-INFRINGEMENT AND FITNESS FOR A PARTICULAR PURPOSE. IN NO EVENT SHALL
     28            TEXAS INSTRUMENTS OR ITS LICENSORS BE LIABLE OR OBLIGATED UNDER CONTRACT,
     29            NEGLIGENCE, STRICT LIABILITY, CONTRIBUTION, BREACH OF WARRANTY, OR OTHER
     30            LEGAL EQUITABLE THEORY ANY DIRECT OR INDIRECT DAMAGES OR EXPENSES
     31            INCLUDING BUT NOT LIMITED TO ANY INCIDENTAL, SPECIAL, INDIRECT, PUNITIVE
     32            OR CONSEQUENTIAL DAMAGES, LOST PROFITS OR LOST DATA, COST OF PROCUREMENT
     33            OF SUBSTITUTE GOODS, TECHNOLOGY, SERVICES, OR ANY CLAIMS BY THIRD PARTIES
     34            (INCLUDING BUT NOT LIMITED TO ANY DEFENSE THEREOF), OR OTHER SIMILAR COSTS.
     35          
     36            Should you have any questions regarding your right to use this Software,
     37            contact Texas Instruments Incorporated at www.TI.com. 
     38          **************************************************************************************************/
     39          
     40          /*********************************************************************
     41            This application isn't intended to do anything useful, it is
     42            intended to be a simple example of an application's structure.
     43          
     44            This application sends "Hello World" to another "Generic"
     45            application every 15 seconds.  The application will also
     46            receive "Hello World" packets.
     47          
     48            The "Hello World" messages are sent/received as MSG type message.
     49          
     50            This applications doesn't have a profile, so it handles everything
     51            directly - itself.
     52          
     53            Key control:
     54              SW1:
     55              SW2:  initiates end device binding
     56              SW3:
     57              SW4:  initiates a match description request
     58          *********************************************************************/
     59          
     60          /*********************************************************************
     61           * INCLUDES
     62           */
     63          #include "OSAL.h"
     64          #include "AF.h"
     65          #include "ZDApp.h"
     66          #include "ZDObject.h"
     67          #include "ZDProfile.h"
     68          #include "OSAL_PwrMgr.h"
     69          
     70          #include "GenericApp.h"
     71          #include "DebugTrace.h"
     72          
     73          #if !defined( WIN32 )
     74            #include "OnBoard.h"
     75          #endif
     76          
     77          /* HAL */
     78          #include "hal_adc.h"
     79          #include "hal_lcd.h"
     80          #include "hal_led.h"
     81          #include "hal_key.h"
     82          #include "hal_uart.h"
     83          #include "hal_ds18b20.h"
     84          #include "stdio.h"
     85          
     86          
     87          /*********************************************************************
     88           * MACROS
     89           */
     90          
     91          /*********************************************************************
     92           * CONSTANTS
     93           */

   \                                 In  segment XDATA_Z, align 1, keep-with-next
     94           unsigned char err_count = 0;
   \                     err_count:
   \   000000                DS 1
   \   000001                REQUIRE __INIT_XDATA_Z
     95          
     96          /*********************************************************************
     97           * TYPEDEFS
     98           */
     99          
    100          /*********************************************************************
    101           * GLOBAL VARIABLES
    102           */
    103          
    104          // This list should be filled with Application specific Cluster IDs.

   \                                 In  segment XDATA_ROM_C, align 1
    105          const cId_t GenericApp_ClusterList[GENERICAPP_MAX_CLUSTERS] =
   \                     GenericApp_ClusterList:
   \   000000   0100         DW 1
    106          {
    107            GENERICAPP_CLUSTERID
    108          };
    109          

   \                                 In  segment XDATA_ROM_C, align 1
    110          const SimpleDescriptionFormat_t GenericApp_SimpleDesc =
   \                     GenericApp_SimpleDesc:
   \   000000   01           DB 1
   \   000001   040F0100     DW 3844, 1
   \   000005   0001         DB 0, 1
   \   000007   ....         DW GenericApp_ClusterList
   \   000009   01           DB 1
   \   00000A   ....         DW GenericApp_ClusterList
    111          {
    112            GENERICAPP_ENDPOINT,              //  int Endpoint;
    113            GENERICAPP_PROFID,                //  uint16 AppProfId[2];
    114            GENERICAPP_DEVICEID,              //  uint16 AppDeviceId[2];
    115            GENERICAPP_DEVICE_VERSION,        //  int   AppDevVer:4;
    116            GENERICAPP_FLAGS,                 //  int   AppFlags:4;
    117            GENERICAPP_MAX_CLUSTERS,          //  byte  AppNumInClusters;
    118            (cId_t *)GenericApp_ClusterList,  //  byte *pAppInClusterList;
    119            GENERICAPP_MAX_CLUSTERS,          //  byte  AppNumInClusters;
    120            (cId_t *)GenericApp_ClusterList   //  byte *pAppInClusterList;
    121          };
    122          
    123          // This is the Endpoint/Interface description.  It is defined here, but
    124          // filled-in in GenericApp_Init().  Another way to go would be to fill
    125          // in the structure here and make it a "const" (in code space).  The
    126          // way it's defined in this sample app it is define in RAM.

   \                                 In  segment XDATA_Z, align 1, keep-with-next
    127          endPointDesc_t GenericApp_epDesc;
   \                     GenericApp_epDesc:
   \   000000                DS 6
   \   000006                REQUIRE __INIT_XDATA_Z
    128          
    129          /*********************************************************************
    130           * EXTERNAL VARIABLES
    131           */
    132          
    133          /*********************************************************************
    134           * EXTERNAL FUNCTIONS
    135           */
    136          
    137          /*********************************************************************
    138           * LOCAL VARIABLES
    139           */

   \                                 In  segment XDATA_Z, align 1, keep-with-next
    140          byte GenericApp_TaskID;   // Task ID for internal task/event processing
   \                     GenericApp_TaskID:
   \   000000                DS 1
   \   000001                REQUIRE __INIT_XDATA_Z
    141                                    // This variable will be received when
    142                                    // GenericApp_Init() is called.

   \                                 In  segment XDATA_Z, align 1, keep-with-next
    143          devStates_t GenericApp_NwkState;
   \                     GenericApp_NwkState:
   \   000000                DS 1
   \   000001                REQUIRE __INIT_XDATA_Z
    144          
    145          

   \                                 In  segment XDATA_Z, align 1, keep-with-next
    146          byte GenericApp_TransID;  // This is the unique message ID (counter)
   \                     GenericApp_TransID:
   \   000000                DS 1
   \   000001                REQUIRE __INIT_XDATA_Z
    147          

   \                                 In  segment XDATA_Z, align 1, keep-with-next
    148          afAddrType_t GenericApp_DstAddr;
   \                     GenericApp_DstAddr:
   \   000000                DS 12
   \   00000C                REQUIRE __INIT_XDATA_Z
    149          
    150          /*********************************************************************
    151           * LOCAL FUNCTIONS
    152           */
    153          void GenericApp_ProcessZDOMsgs( zdoIncomingMsg_t *inMsg );
    154          void GenericApp_MessageMSGCB( afIncomingMSGPacket_t *pckt );
    155          void GenericApp_SendTheMessage( void );
    156          
    157          /*********************************************************************
    158           * NETWORK LAYER CALLBACKS
    159           */
    160          
    161          /*********************************************************************
    162           * PUBLIC FUNCTIONS
    163           */
    164          
    165          /*********************************************************************
    166           * @fn      GenericApp_Init
    167           *
    168           * @brief   Initialization function for the Generic App Task.
    169           *          This is called during initialization and should contain
    170           *          any application specific initialization (ie. hardware
    171           *          initialization/setup, table initialization, power up
    172           *          notificaiton ... ).
    173           *
    174           * @param   task_id - the ID assigned by OSAL.  This ID should be
    175           *                    used to send messages and set timers.
    176           *
    177           * @return  none
    178           */

   \                                 In  segment BANKED_CODE, align 1, keep-with-next
    179          void GenericApp_Init( byte task_id )
   \                     GenericApp_Init:
    180          {
   \   000000   74F7         MOV     A,#-0x9
   \   000002   12....       LCALL   ?BANKED_ENTER_XDATA
   \   000005                ; Saved register size: 9
   \   000005                ; Auto size: 0
   \   000005   E9           MOV     A,R1
    181            GenericApp_TaskID = task_id;
   \   000006   90....       MOV     DPTR,#GenericApp_TaskID
   \   000009   F0           MOVX    @DPTR,A
    182            GenericApp_NwkState = DEV_INIT;
   \   00000A   7401         MOV     A,#0x1
   \   00000C   90....       MOV     DPTR,#GenericApp_NwkState
   \   00000F   F0           MOVX    @DPTR,A
    183            GenericApp_TransID = 0;
   \   000010   E4           CLR     A
   \   000011   90....       MOV     DPTR,#GenericApp_TransID
   \   000014   F0           MOVX    @DPTR,A
    184            
    185            HalUARTInit();
   \   000015                ; Setup parameters for call to function HalUARTInit
   \   000015   12....       LCALL   ??HalUARTInit?relay
    186          
    187            // Device hardware initialization can be added here or in main() (Zmain.c).
    188            // If the hardware is application specific - add it here.
    189            // If the hardware is other parts of the device add it in main().
    190          
    191            GenericApp_DstAddr.addrMode = (afAddrMode_t)Addr16Bit;
   \   000018   7402         MOV     A,#0x2
   \   00001A   90....       MOV     DPTR,#(GenericApp_DstAddr + 8)
   \   00001D   F0           MOVX    @DPTR,A
    192            GenericApp_DstAddr.endPoint = 0x20;  //endPoint 0x20 is Coordinator
   \   00001E   7420         MOV     A,#0x20
   \   000020   90....       MOV     DPTR,#(GenericApp_DstAddr + 9)
   \   000023   F0           MOVX    @DPTR,A
    193            GenericApp_DstAddr.addr.shortAddr = 0x0000;  //shortAddr of Coordinator is always 0000
   \   000024   90....       MOV     DPTR,#GenericApp_DstAddr
   \   000027   E4           CLR     A
   \   000028   F0           MOVX    @DPTR,A
   \   000029   A3           INC     DPTR
   \   00002A   F0           MOVX    @DPTR,A
    194            // Fill out the endpoint description.
    195            GenericApp_epDesc.endPoint = GENERICAPP_ENDPOINT;
   \   00002B   7401         MOV     A,#0x1
   \   00002D   90....       MOV     DPTR,#GenericApp_epDesc
   \   000030   F0           MOVX    @DPTR,A
    196            GenericApp_epDesc.task_id = &GenericApp_TaskID;
   \   000031   90....       MOV     DPTR,#(GenericApp_epDesc + 1)
   \   000034   74..         MOV     A,#(GenericApp_TaskID & 0xff)
   \   000036   F0           MOVX    @DPTR,A
   \   000037   A3           INC     DPTR
   \   000038   74..         MOV     A,#((GenericApp_TaskID >> 8) & 0xff)
   \   00003A   F0           MOVX    @DPTR,A
    197            GenericApp_epDesc.simpleDesc
    198                      = (SimpleDescriptionFormat_t *)&GenericApp_SimpleDesc;
   \   00003B   90....       MOV     DPTR,#(GenericApp_epDesc + 3)
   \   00003E   74..         MOV     A,#(GenericApp_SimpleDesc & 0xff)
   \   000040   F0           MOVX    @DPTR,A
   \   000041   A3           INC     DPTR
   \   000042   74..         MOV     A,#((GenericApp_SimpleDesc >> 8) & 0xff)
   \   000044   F0           MOVX    @DPTR,A
    199            GenericApp_epDesc.latencyReq = noLatencyReqs;
   \   000045   E4           CLR     A
   \   000046   90....       MOV     DPTR,#(GenericApp_epDesc + 5)
   \   000049   F0           MOVX    @DPTR,A
    200          
    201            // Register the endpoint description with the AF
    202            afRegister( &GenericApp_epDesc );
   \   00004A                ; Setup parameters for call to function afRegister
   \   00004A   7A..         MOV     R2,#(GenericApp_epDesc & 0xff)
   \   00004C   7B..         MOV     R3,#((GenericApp_epDesc >> 8) & 0xff)
   \   00004E   12....       LCALL   ??afRegister?relay
    203          
    204            // Register for all key events - This app will handle all key events
    205            RegisterForKeys( GenericApp_TaskID );
   \   000051                ; Setup parameters for call to function RegisterForKeys
   \   000051   90....       MOV     DPTR,#GenericApp_TaskID
   \   000054   E0           MOVX    A,@DPTR
   \   000055   F9           MOV     R1,A
   \   000056   12....       LCALL   ??RegisterForKeys?relay
    206            osal_pwrmgr_task_state(GenericApp_TaskID, PWRMGR_CONSERVE);
   \   000059                ; Setup parameters for call to function osal_pwrmgr_task_state
   \   000059   7A00         MOV     R2,#0x0
   \   00005B   90....       MOV     DPTR,#GenericApp_TaskID
   \   00005E   E0           MOVX    A,@DPTR
   \   00005F   F9           MOV     R1,A
   \   000060   12....       LCALL   ??osal_pwrmgr_task_state?relay
    207          }
   \   000063   7F01         MOV     R7,#0x1
   \   000065   02....       LJMP    ?BANKED_LEAVE_XDATA
    208          
    209          /*********************************************************************
    210           * @fn      GenericApp_ProcessEvent
    211           *
    212           * @brief   Generic Application Task event processor.  This function
    213           *          is called to process all events for the task.  Events
    214           *          include timers, messages and any other user defined events.
    215           *
    216           * @param   task_id  - The OSAL assigned task ID.
    217           * @param   events - events to process.  This is a bit map and can
    218           *                   contain more than one event.
    219           *
    220           * @return  none
    221           */

   \                                 In  segment BANKED_CODE, align 1, keep-with-next
    222          UINT16 GenericApp_ProcessEvent( byte task_id, UINT16 events )
   \                     GenericApp_ProcessEvent:
    223          {
   \   000000   74F4         MOV     A,#-0xc
   \   000002   12....       LCALL   ?BANKED_ENTER_XDATA
   \   000005                ; Saved register size: 12
   \   000005                ; Auto size: 0
   \   000005   8A..         MOV     ?V0 + 0,R2
   \   000007   8B..         MOV     ?V0 + 1,R3
    224            afIncomingMSGPacket_t *MSGpkt;
    225            afDataConfirm_t *afDataConfirm;
    226          
    227            // Data Confirmation message fields
    228            byte sentEP;
    229            ZStatus_t sentStatus;
    230            byte sentTransID;       // This should match the value sent
    231            (void)task_id;  // Intentionally unreferenced parameter
    232            //printf("\r\nEvent Processing!");
    233            if ( events & SYS_EVENT_MSG )
   \   000009   7480         MOV     A,#-0x80
   \   00000B   55..         ANL     A,?V0 + 1
   \   00000D   F9           MOV     R1,A
   \   00000E   E4           CLR     A
   \   00000F   7001         JNZ     ??GenericApp_ProcessEvent_0
   \   000011   E9           MOV     A,R1
   \                     ??GenericApp_ProcessEvent_0:
   \   000012   6076         JZ      ??GenericApp_ProcessEvent_1
    234            {
    235              MSGpkt = (afIncomingMSGPacket_t *)osal_msg_receive( GenericApp_TaskID );
   \   000014                ; Setup parameters for call to function osal_msg_receive
   \   000014   800E         SJMP    ??GenericApp_ProcessEvent_2
    236              while ( MSGpkt )
    237              {
    238                switch ( MSGpkt->hdr.event )
    239                {
    240                  case ZDO_CB_MSG:
    241                    GenericApp_ProcessZDOMsgs( (zdoIncomingMsg_t *)MSGpkt );
   \                     ??GenericApp_ProcessEvent_3:
   \   000016                ; Setup parameters for call to function GenericApp_ProcessZDOMsgs
   \   000016   EE           MOV     A,R6
   \   000017   FA           MOV     R2,A
   \   000018   EF           MOV     A,R7
   \   000019   FB           MOV     R3,A
   \   00001A   12....       LCALL   ??GenericApp_ProcessZDOMsgs?relay
    242                    break;
    243          
    244                  case AF_DATA_CONFIRM_CMD:
    245                    // This message is received as a confirmation of a data packet sent.
    246                    // The status is of ZStatus_t type [defined in ZComDef.h]
    247                    // The message fields are defined in AF.h
    248                    afDataConfirm = (afDataConfirm_t *)MSGpkt;
    249                    sentEP = afDataConfirm->endpoint;
    250                    sentStatus = afDataConfirm->hdr.status;
    251                    sentTransID = afDataConfirm->transID;
    252                    (void)sentEP;
    253                    (void)sentTransID;
    254          
    255                    // Action taken when confirmation is received.
    256                    if ( sentStatus != ZSuccess )
    257                    {
    258                      // The data wasn't delivered -- Do something
    259                      //printf("\r\n Data not sent");
    260                    }
    261                    break;
    262          
    263                  case AF_INCOMING_MSG_CMD:
    264                    //printf("\r\n Msg Coming");
    265                    GenericApp_MessageMSGCB( MSGpkt );
    266                    break;
    267          
    268                  case ZDO_STATE_CHANGE:
    269                    //printf("\r\n State Changed");
    270                    GenericApp_NwkState = (devStates_t)(MSGpkt->hdr.status);
    271                    if ( (GenericApp_NwkState == DEV_ZB_COORD)
    272                        || (GenericApp_NwkState == DEV_ROUTER)
    273                        || (GenericApp_NwkState == DEV_END_DEVICE) )
    274                    {
    275                      // Start sending "the" message in a regular interval.
    276                      /*osal_start_timerEx( GenericApp_TaskID,
    277                                          GENERICAPP_SEND_MSG_EVT,
    278                                        GENERICAPP_SEND_MSG_TIMEOUT );*/
    279                      osal_set_event(GenericApp_TaskID,GENERICAPP_SEND_MSG_EVT);
    280                    }
    281                    break;
    282                    
    283                  default:
    284                    break;
    285                }
    286          
    287                // Release the memory
    288                osal_msg_deallocate( (uint8 *)MSGpkt );
   \                     ??GenericApp_ProcessEvent_4:
   \   00001D                ; Setup parameters for call to function osal_msg_deallocate
   \   00001D   EE           MOV     A,R6
   \   00001E   FA           MOV     R2,A
   \   00001F   EF           MOV     A,R7
   \   000020   FB           MOV     R3,A
   \   000021   12....       LCALL   ??osal_msg_deallocate?relay
    289          
    290                // Next
    291                MSGpkt = (afIncomingMSGPacket_t *)osal_msg_receive( GenericApp_TaskID );
   \   000024                ; Setup parameters for call to function osal_msg_receive
   \                     ??GenericApp_ProcessEvent_2:
   \   000024   90....       MOV     DPTR,#GenericApp_TaskID
   \   000027   E0           MOVX    A,@DPTR
   \   000028   F9           MOV     R1,A
   \   000029   12....       LCALL   ??osal_msg_receive?relay
   \   00002C   8A..         MOV     ?V0 + 2,R2
   \   00002E   8B..         MOV     ?V0 + 3,R3
   \   000030   AE..         MOV     R6,?V0 + 2
   \   000032   AF..         MOV     R7,?V0 + 3
   \   000034   EE           MOV     A,R6
   \   000035   7001         JNZ     ??GenericApp_ProcessEvent_5
   \   000037   EF           MOV     A,R7
   \                     ??GenericApp_ProcessEvent_5:
   \   000038   6047         JZ      ??GenericApp_ProcessEvent_6
   \   00003A   8E82         MOV     DPL,R6
   \   00003C   8F83         MOV     DPH,R7
   \   00003E   E0           MOVX    A,@DPTR
   \   00003F   12....       LCALL   ?UC_SWITCH_SPARSE
   \                     `?<Jumptable for GenericApp_ProcessEvent>_0`:
   \   000042   00           DB        0
   \   000043   04           DB        4
   \   000044   1A           DB        26
   \   000045   ....         DW        ??GenericApp_ProcessEvent_7
   \   000047   D1           DB        209
   \   000048   ....         DW        ??GenericApp_ProcessEvent_8
   \   00004A   D3           DB        211
   \   00004B   ....         DW        ??GenericApp_ProcessEvent_3
   \   00004D   FD           DB        253
   \   00004E   ....         DW        ??GenericApp_ProcessEvent_4
   \   000050   ....         DW        ??GenericApp_ProcessEvent_4
   \                     ??GenericApp_ProcessEvent_7:
   \   000052                ; Setup parameters for call to function GenericApp_MessageMSGCB
   \   000052   EE           MOV     A,R6
   \   000053   FA           MOV     R2,A
   \   000054   EF           MOV     A,R7
   \   000055   FB           MOV     R3,A
   \   000056   12....       LCALL   ??GenericApp_MessageMSGCB?relay
   \   000059   80C2         SJMP    ??GenericApp_ProcessEvent_4
   \                     ??GenericApp_ProcessEvent_8:
   \   00005B   8E82         MOV     DPL,R6
   \   00005D   8F83         MOV     DPH,R7
   \   00005F   A3           INC     DPTR
   \   000060   E0           MOVX    A,@DPTR
   \   000061   90....       MOV     DPTR,#GenericApp_NwkState
   \   000064   F0           MOVX    @DPTR,A
   \   000065   6409         XRL     A,#0x9
   \   000067   600A         JZ      ??GenericApp_ProcessEvent_9
   \   000069   E0           MOVX    A,@DPTR
   \   00006A   6407         XRL     A,#0x7
   \   00006C   6005         JZ      ??GenericApp_ProcessEvent_9
   \   00006E   E0           MOVX    A,@DPTR
   \   00006F   6406         XRL     A,#0x6
   \   000071   70AA         JNZ     ??GenericApp_ProcessEvent_4
   \                     ??GenericApp_ProcessEvent_9:
   \   000073                ; Setup parameters for call to function osal_set_event
   \   000073   7A01         MOV     R2,#0x1
   \   000075   7B00         MOV     R3,#0x0
   \   000077   90....       MOV     DPTR,#GenericApp_TaskID
   \   00007A   E0           MOVX    A,@DPTR
   \   00007B   F9           MOV     R1,A
   \   00007C   12....       LCALL   ??osal_set_event?relay
   \   00007F   809C         SJMP    ??GenericApp_ProcessEvent_4
    292              }
    293          
    294              // return unprocessed events
    295              return (events ^ SYS_EVENT_MSG);
   \                     ??GenericApp_ProcessEvent_6:
   \   000081   AA..         MOV     R2,?V0 + 0
   \   000083   7480         MOV     A,#-0x80
   \   000085   65..         XRL     A,?V0 + 1
   \   000087   FB           MOV     R3,A
   \   000088   8025         SJMP    ??GenericApp_ProcessEvent_10
    296            }
    297          
    298            // Send a message out - This event is generated by a timer
    299            //  (setup in GenericApp_Init()).
    300            if ( events & GENERICAPP_SEND_MSG_EVT )
   \                     ??GenericApp_ProcessEvent_1:
   \   00008A   EA           MOV     A,R2
   \   00008B   A2E0         MOV     C,0xE0 /* A   */.0
   \   00008D   501C         JNC     ??GenericApp_ProcessEvent_11
    301            {
    302              // Send "the" message
    303              GenericApp_SendTheMessage();
   \   00008F                ; Setup parameters for call to function GenericApp_SendTheMessage
   \   00008F   12....       LCALL   ??GenericApp_SendTheMessage?relay
    304          
    305              // Setup to send message again
    306              osal_start_timerEx( GenericApp_TaskID,
    307                                  GENERICAPP_SEND_MSG_EVT,
    308                                GENERICAPP_SEND_MSG_TIMEOUT );
   \   000092                ; Setup parameters for call to function osal_start_timerEx
   \   000092   7C98         MOV     R4,#-0x68
   \   000094   7D3A         MOV     R5,#0x3a
   \   000096   7A01         MOV     R2,#0x1
   \   000098   7B00         MOV     R3,#0x0
   \   00009A   90....       MOV     DPTR,#GenericApp_TaskID
   \   00009D   E0           MOVX    A,@DPTR
   \   00009E   F9           MOV     R1,A
   \   00009F   12....       LCALL   ??osal_start_timerEx?relay
    309          
    310              // return unprocessed events
    311              return (events ^ GENERICAPP_SEND_MSG_EVT);
   \   0000A2   7401         MOV     A,#0x1
   \   0000A4   65..         XRL     A,?V0 + 0
   \   0000A6   FA           MOV     R2,A
   \   0000A7   AB..         MOV     R3,?V0 + 1
   \   0000A9   8004         SJMP    ??GenericApp_ProcessEvent_10
    312            }
    313          
    314            // Discard unknown events
    315            return 0;
   \                     ??GenericApp_ProcessEvent_11:
   \   0000AB   7A00         MOV     R2,#0x0
   \   0000AD   7B00         MOV     R3,#0x0
   \                     ??GenericApp_ProcessEvent_10:
   \   0000AF   7F04         MOV     R7,#0x4
   \   0000B1   02....       LJMP    ?BANKED_LEAVE_XDATA
    316          }
    317          
    318          /*********************************************************************
    319           * Event Generation Functions
    320           */
    321          
    322          /*********************************************************************
    323           * @fn      GenericApp_ProcessZDOMsgs()
    324           *
    325           * @brief   Process response messages
    326           *
    327           * @param   none
    328           *
    329           * @return  none
    330           */

   \                                 In  segment BANKED_CODE, align 1, keep-with-next
    331          void GenericApp_ProcessZDOMsgs( zdoIncomingMsg_t *inMsg )
   \                     GenericApp_ProcessZDOMsgs:
    332          {
   \   000000   74F6         MOV     A,#-0xa
   \   000002   12....       LCALL   ?BANKED_ENTER_XDATA
   \   000005                ; Saved register size: 10
   \   000005                ; Auto size: 0
    333            switch ( inMsg->clusterID )
   \   000005   EA           MOV     A,R2
   \   000006   240C         ADD     A,#0xc
   \   000008   12....       LCALL   ?Subroutine1 & 0xFFFF
   \                     ??CrossCallReturnLabel_0:
   \   00000B   78..         MOV     R0,#?V0 + 0
   \   00000D   12....       LCALL   ?US_SWITCH_SPARSE
   \                     `?<Jumptable for GenericApp_ProcessZDOMsgs>_0`:
   \   000010   0000         DW        0
   \   000012   0200         DW        2
   \   000014   0680         DW        32774
   \   000016   ....         DW        ??GenericApp_ProcessZDOMsgs_0
   \   000018   2080         DW        32800
   \   00001A   ....         DW        ??GenericApp_ProcessZDOMsgs_1
   \   00001C   ....         DW        ??GenericApp_ProcessZDOMsgs_2
    334            {
    335              case End_Device_Bind_rsp:
    336                if ( ZDO_ParseBindRsp( inMsg ) == ZSuccess )
   \                     ??GenericApp_ProcessZDOMsgs_1:
   \   00001E   EA           MOV     A,R2
   \   00001F   2413         ADD     A,#0x13
   \   000021   F582         MOV     DPL,A
   \   000023   EB           MOV     A,R3
   \   000024   3400         ADDC    A,#0x0
   \   000026   F583         MOV     DPH,A
   \   000028   E0           MOVX    A,@DPTR
   \   000029   F8           MOV     R0,A
   \   00002A   A3           INC     DPTR
   \   00002B   E0           MOVX    A,@DPTR
   \   00002C   F583         MOV     DPH,A
   \   00002E   8882         MOV     DPL,R0
   \   000030   E0           MOVX    A,@DPTR
   \   000031   7009         JNZ     ??GenericApp_ProcessZDOMsgs_3
    337                {
    338                  // Light LED
    339                  HalLedSet( HAL_LED_4, HAL_LED_MODE_ON );
   \   000033                ; Setup parameters for call to function HalLedSet
   \   000033   7A01         MOV     R2,#0x1
   \                     ??GenericApp_ProcessZDOMsgs_4:
   \   000035   7908         MOV     R1,#0x8
   \   000037   12....       LCALL   ??HalLedSet?relay
   \   00003A   8055         SJMP    ??GenericApp_ProcessZDOMsgs_2
    340                }
    341          #if defined(BLINK_LEDS)
    342                else
    343                {
    344                  // Flash LED to show failure
    345                  HalLedSet ( HAL_LED_4, HAL_LED_MODE_FLASH );
   \                     ??GenericApp_ProcessZDOMsgs_3:
   \   00003C                ; Setup parameters for call to function HalLedSet
   \   00003C   7A04         MOV     R2,#0x4
   \   00003E   80F5         SJMP    ??GenericApp_ProcessZDOMsgs_4
    346                }
    347          #endif
    348                break;
    349          
    350              case Match_Desc_rsp:
    351                {
    352                  ZDO_ActiveEndpointRsp_t *pRsp = ZDO_ParseEPListRsp( inMsg );
   \                     ??GenericApp_ProcessZDOMsgs_0:
   \   000040                ; Setup parameters for call to function ZDO_ParseEPListRsp
   \   000040   12....       LCALL   ??ZDO_ParseEPListRsp?relay
   \   000043   8A..         MOV     ?V0 + 0,R2
   \   000045   8B..         MOV     ?V0 + 1,R3
   \   000047   AE..         MOV     R6,?V0 + 0
   \   000049   AF..         MOV     R7,?V0 + 1
    353                  if ( pRsp )
   \   00004B   EE           MOV     A,R6
   \   00004C   7001         JNZ     ??GenericApp_ProcessZDOMsgs_5
   \   00004E   EF           MOV     A,R7
   \                     ??GenericApp_ProcessZDOMsgs_5:
   \   00004F   6040         JZ      ??GenericApp_ProcessZDOMsgs_2
    354                  {
    355                    if ( pRsp->status == ZSuccess && pRsp->cnt )
   \   000051   8E82         MOV     DPL,R6
   \   000053   8F83         MOV     DPH,R7
   \   000055   E0           MOVX    A,@DPTR
   \   000056   7032         JNZ     ??GenericApp_ProcessZDOMsgs_6
   \   000058   A3           INC     DPTR
   \   000059   A3           INC     DPTR
   \   00005A   A3           INC     DPTR
   \   00005B   E0           MOVX    A,@DPTR
   \   00005C   602C         JZ      ??GenericApp_ProcessZDOMsgs_6
    356                    {
    357                      GenericApp_DstAddr.addrMode = (afAddrMode_t)Addr16Bit;
   \   00005E   7402         MOV     A,#0x2
   \   000060   90....       MOV     DPTR,#(GenericApp_DstAddr + 8)
   \   000063   F0           MOVX    @DPTR,A
    358                      GenericApp_DstAddr.addr.shortAddr = pRsp->nwkAddr;
   \   000064   8E82         MOV     DPL,R6
   \   000066   8F83         MOV     DPH,R7
   \   000068   A3           INC     DPTR
   \   000069   E0           MOVX    A,@DPTR
   \   00006A   F8           MOV     R0,A
   \   00006B   A3           INC     DPTR
   \   00006C   E0           MOVX    A,@DPTR
   \   00006D   F9           MOV     R1,A
   \   00006E   90....       MOV     DPTR,#GenericApp_DstAddr
   \   000071   E8           MOV     A,R0
   \   000072   F0           MOVX    @DPTR,A
   \   000073   A3           INC     DPTR
   \   000074   E9           MOV     A,R1
   \   000075   F0           MOVX    @DPTR,A
    359                      // Take the first endpoint, Can be changed to search through endpoints
    360                      GenericApp_DstAddr.endPoint = pRsp->epList[0];
   \   000076   8E82         MOV     DPL,R6
   \   000078   8F83         MOV     DPH,R7
   \   00007A   A3           INC     DPTR
   \   00007B   A3           INC     DPTR
   \   00007C   A3           INC     DPTR
   \   00007D   A3           INC     DPTR
   \   00007E   E0           MOVX    A,@DPTR
   \   00007F   90....       MOV     DPTR,#(GenericApp_DstAddr + 9)
   \   000082   F0           MOVX    @DPTR,A
    361          
    362                      // Light LED
    363                      HalLedSet( HAL_LED_4, HAL_LED_MODE_ON );
   \   000083                ; Setup parameters for call to function HalLedSet
   \   000083   7A01         MOV     R2,#0x1
   \   000085   7908         MOV     R1,#0x8
   \   000087   12....       LCALL   ??HalLedSet?relay
    364                    }
    365                    osal_mem_free( pRsp );
   \                     ??GenericApp_ProcessZDOMsgs_6:
   \   00008A                ; Setup parameters for call to function osal_mem_free
   \   00008A   EE           MOV     A,R6
   \   00008B   FA           MOV     R2,A
   \   00008C   EF           MOV     A,R7
   \   00008D   FB           MOV     R3,A
   \   00008E   12....       LCALL   ??osal_mem_free?relay
    366                  }
    367                }
    368                break;
    369            }
    370          }
   \                     ??GenericApp_ProcessZDOMsgs_2:
   \   000091                REQUIRE ?Subroutine0
   \   000091                ; // Fall through to label ?Subroutine0

   \                                 In  segment BANKED_CODE, align 1, keep-with-next
   \                     ?Subroutine0:
   \   000000   7F02         MOV     R7,#0x2
   \   000002   02....       LJMP    ?BANKED_LEAVE_XDATA

   \                                 In  segment BANKED_CODE, align 1, keep-with-next
   \                     ?Subroutine1:
   \   000000   F582         MOV     DPL,A
   \   000002   EB           MOV     A,R3
   \   000003   3400         ADDC    A,#0x0
   \   000005   F583         MOV     DPH,A
   \   000007   E0           MOVX    A,@DPTR
   \   000008   F5..         MOV     ?V0 + 0,A
   \   00000A   A3           INC     DPTR
   \   00000B   E0           MOVX    A,@DPTR
   \   00000C   F5..         MOV     ?V0 + 1,A
   \   00000E   22           RET
    371          
    372          
    373          /*********************************************************************
    374           * LOCAL FUNCTIONS
    375           */
    376          
    377          /*********************************************************************
    378           * @fn      GenericApp_MessageMSGCB
    379           *
    380           * @brief   Data message processor callback.  This function processes
    381           *          any incoming data - probably from other devices.  So, based
    382           *          on cluster ID, perform the intended action.
    383           *
    384           * @param   none
    385           *
    386           * @return  none
    387           */

   \                                 In  segment BANKED_CODE, align 1, keep-with-next
    388          void GenericApp_MessageMSGCB( afIncomingMSGPacket_t *pkt )
   \                     GenericApp_MessageMSGCB:
    389          {
   \   000000   74F5         MOV     A,#-0xb
   \   000002   12....       LCALL   ?BANKED_ENTER_XDATA
   \   000005                ; Saved register size: 11
   \   000005                ; Auto size: 7
   \   000005   74F9         MOV     A,#-0x7
   \   000007   12....       LCALL   ?ALLOC_XSTACK8
    390            //unsigned char cmd = 0;
    391            //unsigned int data = 0;
    392            unsigned char buf[7] = "";
   \   00000A   85..82       MOV     DPL,?XSP + 0
   \   00000D   85..83       MOV     DPH,?XSP + 1
   \   000010   AC82         MOV     R4,DPL
   \   000012   AD83         MOV     R5,DPH
   \   000014   7583..       MOV     DPH,#((`?<Constant "">` >> 8) & 0xff)
   \   000017   7582..       MOV     DPL,#(`?<Constant "">` & 0xff)
   \   00001A   7407         MOV     A,#0x7
   \   00001C   12....       LCALL   ?MOVE_LONG8_XDATA_XDATA
    393            switch ( pkt->clusterId )
   \   00001F   8A82         MOV     DPL,R2
   \   000021   8B83         MOV     DPH,R3
   \   000023   A3           INC     DPTR
   \   000024   A3           INC     DPTR
   \   000025   A3           INC     DPTR
   \   000026   A3           INC     DPTR
   \   000027   E0           MOVX    A,@DPTR
   \   000028   6401         XRL     A,#0x1
   \   00002A   7002         JNZ     ??GenericApp_MessageMSGCB_0
   \   00002C   A3           INC     DPTR
   \   00002D   E0           MOVX    A,@DPTR
   \                     ??GenericApp_MessageMSGCB_0:
   \   00002E   7036         JNZ     ??GenericApp_MessageMSGCB_1
    394            {
    395              case GENERICAPP_CLUSTERID:
    396                osal_memcpy(buf, pkt->cmd.Data, 6);
   \   000030                ; Setup parameters for call to function osal_memcpy
   \   000030   EA           MOV     A,R2
   \   000031   2421         ADD     A,#0x21
   \   000033   12....       LCALL   ?Subroutine1 & 0xFFFF
   \                     ??CrossCallReturnLabel_1:
   \   000036   75..00       MOV     ?V0 + 2,#0x0
   \   000039   78..         MOV     R0,#?V0 + 0
   \   00003B   12....       LCALL   ?PUSH_XSTACK_I_THREE
   \   00003E   7C06         MOV     R4,#0x6
   \   000040   7D00         MOV     R5,#0x0
   \   000042   7403         MOV     A,#0x3
   \   000044   12....       LCALL   ?XSTACK_DISP0_8
   \   000047   AA82         MOV     R2,DPL
   \   000049   AB83         MOV     R3,DPH
   \   00004B   12....       LCALL   ??osal_memcpy?relay
   \   00004E   7403         MOV     A,#0x3
   \   000050   12....       LCALL   ?DEALLOC_XSTACK8
    397                //HalUARTWrite(0, "Msg!\r\n", 8);
    398                HalUARTWrite(0, buf, 6);
   \   000053                ; Setup parameters for call to function HalUARTWrite
   \   000053   7C06         MOV     R4,#0x6
   \   000055   7D00         MOV     R5,#0x0
   \   000057   85..82       MOV     DPL,?XSP + 0
   \   00005A   85..83       MOV     DPH,?XSP + 1
   \   00005D   AA82         MOV     R2,DPL
   \   00005F   AB83         MOV     R3,DPH
   \   000061   7900         MOV     R1,#0x0
   \   000063   12....       LCALL   ??HalUARTWrite?relay
    399                break;
    400              //TODO: process commands received from coordinator here
    401            }
    402          }
   \                     ??GenericApp_MessageMSGCB_1:
   \   000066   7407         MOV     A,#0x7
   \   000068   12....       LCALL   ?DEALLOC_XSTACK8
   \   00006B   7F03         MOV     R7,#0x3
   \   00006D   02....       LJMP    ?BANKED_LEAVE_XDATA
    403          
    404          /*********************************************************************
    405           * @fn      GenericApp_SendTheMessage
    406           *
    407           * @brief   Send "the" message.
    408           *
    409           * @param   none
    410           *
    411           * @return  none
    412           */

   \                                 In  segment BANKED_CODE, align 1, keep-with-next
    413          void GenericApp_SendTheMessage( void )
   \                     GenericApp_SendTheMessage:
    414          {
   \   000000   74F6         MOV     A,#-0xa
   \   000002   12....       LCALL   ?BANKED_ENTER_XDATA
   \   000005                ; Saved register size: 10
   \   000005                ; Auto size: 6
   \   000005   74FA         MOV     A,#-0x6
   \   000007   12....       LCALL   ?ALLOC_XSTACK8
    415            unsigned char theMessageData[6] = "";
   \   00000A   85..82       MOV     DPL,?XSP + 0
   \   00000D   85..83       MOV     DPH,?XSP + 1
   \   000010   AC82         MOV     R4,DPL
   \   000012   AD83         MOV     R5,DPH
   \   000014   7583..       MOV     DPH,#((`?<Constant "">_1` >> 8) & 0xff)
   \   000017   7582..       MOV     DPL,#(`?<Constant "">_1` & 0xff)
   \   00001A   7406         MOV     A,#0x6
   \   00001C   12....       LCALL   ?MOVE_LONG8_XDATA_XDATA
    416            unsigned int temp_data = 0;
                                ^
Warning[Pe550]: variable "temp_data" was set but never used
    417            unsigned int sensor_data = 0;
    418            //address or device info in theMessageData
    419            theMessageData[0] = 0xCC; //beginning check code
   \   00001F   74CC         MOV     A,#-0x34
   \   000021   85..82       MOV     DPL,?XSP + 0
   \   000024   85..83       MOV     DPH,?XSP + 1
   \   000027   F0           MOVX    @DPTR,A
    420            //Byte 1 : high 3 bits are the address of coordinator, low 5 bits are the address of end divice
    421            theMessageData[1] = 0x21; //coordinator 001b, end device 00001b
   \   000028   7401         MOV     A,#0x1
   \   00002A   12....       LCALL   ?XSTACK_DISP0_8
   \   00002D   7421         MOV     A,#0x21
   \   00002F   F0           MOVX    @DPTR,A
    422            theMessageData[2] = 0xC3; //2nd and 3rd byte of theMessageData is reserved or as check code
   \   000030   7402         MOV     A,#0x2
   \   000032   12....       LCALL   ?XSTACK_DISP0_8
   \   000035   74C3         MOV     A,#-0x3d
   \   000037   F0           MOVX    @DPTR,A
    423            sensor_data = ReadSensorTempData();
    424            osal_buffer_uint16(&theMessageData[3], sensor_data); //4,5th byte of theMessageData store the temp
   \   000038                ; Setup parameters for call to function osal_buffer_uint16
   \   000038                ; Setup parameters for call to function ReadSensorTempData
   \   000038   12....       LCALL   ??ReadSensorTempData?relay
   \   00003B   EA           MOV     A,R2
   \   00003C   FC           MOV     R4,A
   \   00003D   EB           MOV     A,R3
   \   00003E   FD           MOV     R5,A
   \   00003F   7403         MOV     A,#0x3
   \   000041   12....       LCALL   ?XSTACK_DISP0_8
   \   000044   AA82         MOV     R2,DPL
   \   000046   AB83         MOV     R3,DPH
   \   000048   12....       LCALL   ??osal_buffer_uint16?relay
    425            theMessageData[5] = 0x33; //end check code
   \   00004B   7405         MOV     A,#0x5
   \   00004D   12....       LCALL   ?XSTACK_DISP0_8
   \   000050   7433         MOV     A,#0x33
   \   000052   F0           MOVX    @DPTR,A
    426            temp_data = HalAdcRead(HAL_ADC_CHN_AIN0,HAL_ADC_RESOLUTION_14);
   \   000053                ; Setup parameters for call to function HalAdcRead
   \   000053   7A04         MOV     R2,#0x4
   \   000055   7900         MOV     R1,#0x0
   \   000057   12....       LCALL   ??HalAdcRead?relay
    427            //printf("ADC:%d", temp_data);
    428            if ( AF_DataRequest( &GenericApp_DstAddr, &GenericApp_epDesc,
    429                                 GENERICAPP_CLUSTERID,
    430                                 6,//(byte)osal_strlen( theMessageData ) + 1
    431                                 theMessageData,
    432                                 &GenericApp_TransID,
    433                                 AF_DISCV_ROUTE, AF_DEFAULT_RADIUS ) == afStatus_SUCCESS )
   \   00005A                ; Setup parameters for call to function AF_DataRequest
   \   00005A   75..1E       MOV     ?V0 + 0,#0x1e
   \   00005D   78..         MOV     R0,#?V0 + 0
   \   00005F   12....       LCALL   ?PUSH_XSTACK_I_ONE
   \   000062   75....       MOV     ?V0 + 0,#(GenericApp_TransID & 0xff)
   \   000065   75....       MOV     ?V0 + 1,#((GenericApp_TransID >> 8) & 0xff)
   \   000068   78..         MOV     R0,#?V0 + 0
   \   00006A   12....       LCALL   ?PUSH_XSTACK_I_TWO
   \   00006D   7403         MOV     A,#0x3
   \   00006F   12....       LCALL   ?XSTACK_DISP0_8
   \   000072   8582..       MOV     ?V0 + 0,DPL
   \   000075   8583..       MOV     ?V0 + 1,DPH
   \   000078   78..         MOV     R0,#?V0 + 0
   \   00007A   12....       LCALL   ?PUSH_XSTACK_I_TWO
   \   00007D   75..06       MOV     ?V0 + 0,#0x6
   \   000080   75..00       MOV     ?V0 + 1,#0x0
   \   000083   78..         MOV     R0,#?V0 + 0
   \   000085   12....       LCALL   ?PUSH_XSTACK_I_TWO
   \   000088   75..01       MOV     ?V0 + 0,#0x1
   \   00008B   78..         MOV     R0,#?V0 + 0
   \   00008D   12....       LCALL   ?PUSH_XSTACK_I_TWO
   \   000090   7920         MOV     R1,#0x20
   \   000092   7C..         MOV     R4,#(GenericApp_epDesc & 0xff)
   \   000094   7D..         MOV     R5,#((GenericApp_epDesc >> 8) & 0xff)
   \   000096   7A..         MOV     R2,#(GenericApp_DstAddr & 0xff)
   \   000098   7B..         MOV     R3,#((GenericApp_DstAddr >> 8) & 0xff)
   \   00009A   12....       LCALL   ??AF_DataRequest?relay
   \   00009D   7409         MOV     A,#0x9
   \   00009F   12....       LCALL   ?DEALLOC_XSTACK8
   \   0000A2   E9           MOV     A,R1
   \   0000A3   600C         JZ      ??GenericApp_SendTheMessage_0
    434            {
    435              // Successfully requested to be sent.
    436            }
    437            else
    438            {
    439              // Error occurred in request to send.
    440              err_count++;
   \   0000A5   90....       MOV     DPTR,#err_count
   \   0000A8   E0           MOVX    A,@DPTR
   \   0000A9   04           INC     A
   \   0000AA   F0           MOVX    @DPTR,A
    441              if (err_count == 3) {
   \   0000AB   6403         XRL     A,#0x3
   \   0000AD   7002         JNZ     ??GenericApp_SendTheMessage_0
    442                err_count =0;
   \   0000AF   E4           CLR     A
   \   0000B0   F0           MOVX    @DPTR,A
    443                //asm("LJMP 0x0");  // software reset
    444              }
    445            }
    446          }
   \                     ??GenericApp_SendTheMessage_0:
   \   0000B1   7406         MOV     A,#0x6
   \   0000B3   12....       LCALL   ?DEALLOC_XSTACK8
   \   0000B6   02....       LJMP    ?Subroutine0 & 0xFFFF

   \                                 In  segment BANK_RELAYS, align 1
   \                     ??GenericApp_Init?relay:
   \   000000   12....       LCALL   ?BDISPATCH
   \   000003   ......       DC24    GenericApp_Init

   \                                 In  segment BANK_RELAYS, align 1
   \                     ??GenericApp_ProcessEvent?relay:
   \   000000   12....       LCALL   ?BDISPATCH
   \   000003   ......       DC24    GenericApp_ProcessEvent

   \                                 In  segment BANK_RELAYS, align 1
   \                     ??GenericApp_ProcessZDOMsgs?relay:
   \   000000   12....       LCALL   ?BDISPATCH
   \   000003   ......       DC24    GenericApp_ProcessZDOMsgs

   \                                 In  segment BANK_RELAYS, align 1
   \                     ??GenericApp_MessageMSGCB?relay:
   \   000000   12....       LCALL   ?BDISPATCH
   \   000003   ......       DC24    GenericApp_MessageMSGCB

   \                                 In  segment BANK_RELAYS, align 1
   \                     ??GenericApp_SendTheMessage?relay:
   \   000000   12....       LCALL   ?BDISPATCH
   \   000003   ......       DC24    GenericApp_SendTheMessage

   \                                 In  segment XDATA_ROM_C, align 1
   \                     `?<Constant "">`:
   \   000000   00           DB ""
   \   000001   00000000     DB 0, 0, 0, 0, 0, 0
   \            0000    

   \                                 In  segment XDATA_ROM_C, align 1
   \                     `?<Constant "">_1`:
   \   000000   00           DB ""
   \   000001   00000000     DB 0, 0, 0, 0, 0
   \            00      
    447          
    448          /*********************************************************************
    449          *********************************************************************/

   Maximum stack usage in bytes:

     Function                       ISTACK PSTACK XSTACK
     --------                       ------ ------ ------
     GenericApp_Init                    0      0      9
       -> HalUARTInit                   0      0     18
       -> afRegister                    0      0     18
       -> RegisterForKeys               0      0     18
       -> osal_pwrmgr_task_state        0      0     18
     GenericApp_MessageMSGCB            2      0     33
       -> osal_memcpy                   0      0     42
       -> HalUARTWrite                  0      0     36
     GenericApp_ProcessEvent            0      0     12
       -> osal_msg_receive              0      0     24
       -> GenericApp_ProcessZDOMsgs     0      0     24
       -> osal_msg_deallocate           0      0     24
       -> osal_msg_receive              0      0     24
       -> GenericApp_MessageMSGCB       0      0     24
       -> osal_set_event                0      0     24
       -> GenericApp_SendTheMessage     0      0     24
       -> osal_start_timerEx            0      0     24
     GenericApp_ProcessZDOMsgs          0      0     22
       -> HalLedSet                     0      0     20
       -> HalLedSet                     0      0     20
       -> ZDO_ParseEPListRsp            0      0     20
       -> HalLedSet                     0      0     20
       -> osal_mem_free                 0      0     20
     GenericApp_SendTheMessage          2      0     37
       -> ReadSensorTempData            0      0     32
       -> osal_buffer_uint16            0      0     32
       -> HalAdcRead                    0      0     32
       -> AF_DataRequest                0      0     50


   Segment part sizes:

     Function/Label                    Bytes
     --------------                    -----
     err_count                            1
     GenericApp_ClusterList               2
     GenericApp_SimpleDesc               12
     GenericApp_epDesc                    6
     GenericApp_TaskID                    1
     GenericApp_NwkState                  1
     GenericApp_TransID                   1
     GenericApp_DstAddr                  12
     GenericApp_Init                    104
     GenericApp_ProcessEvent            180
     GenericApp_ProcessZDOMsgs          145
     ?Subroutine0                         5
     ?Subroutine1                        15
     GenericApp_MessageMSGCB            112
     GenericApp_SendTheMessage          185
     ??GenericApp_Init?relay              6
     ??GenericApp_ProcessEvent?relay      6
     ??GenericApp_ProcessZDOMsgs?relay    6
     ??GenericApp_MessageMSGCB?relay      6
     ??GenericApp_SendTheMessage?relay    6
     ?<Constant "">                       7
     ?<Constant "">_1                     6

 
 746 bytes in segment BANKED_CODE
  30 bytes in segment BANK_RELAYS
  27 bytes in segment XDATA_ROM_C
  22 bytes in segment XDATA_Z
 
 776 bytes of CODE  memory
  27 bytes of CONST memory
  22 bytes of XDATA memory

Errors: none
Warnings: 1
