///////////////////////////////////////////////////////////////////////////////
//                                                                            /
// IAR C/C++ Compiler V7.60.1.40026 for 8051            04/May/2014  15:12:53 /
// Copyright (C) 2004-2010 IAR Systems AB.                                    /
//                                                                            /
//    Core               =  plain                                             /
//    Code model         =  banked                                            /
//    Data model         =  large                                             /
//    Calling convention =  xdata reentrant                                   /
//    Constant location  =  data_rom                                          /
//    Dptr setup         =  1,16                                              /
//    Source file        =  C:\Users\John\Dropbox\grad_proj\zstack-cc2530-end /
//                          device\Components\hal\target\CC2530EB\hal_i2c.c   /
//    Command line       =  -f C:\Users\John\Dropbox\grad_proj\zstack-cc2530- /
//                          enddevice\Projects\zstack\Samples\GenericApp\CC25 /
//                          30DB\..\..\..\Tools\CC2530DB\f8wEndev.cfg         /
//                          (-DCPU32MHZ -DROOT=__near_func                    /
//                          -DMAC_CFG_TX_DATA_MAX=3 -DMAC_CFG_TX_MAX=6        /
//                          -DMAC_CFG_RX_MAX=3) -f C:\Users\John\Dropbox\grad /
//                          _proj\zstack-cc2530-enddevice\Projects\zstack\Sam /
//                          ples\GenericApp\CC2530DB\..\..\..\Tools\CC2530DB\ /
//                          f8wConfig.cfg (-DZIGBEEPRO -DSECURE=0             /
//                          -DZG_SECURE_DYNAMIC=0 -DREFLECTOR                 /
//                          -DDEFAULT_CHANLIST=0x00000800                     /
//                          -DZDAPP_CONFIG_PAN_ID=0x1111                      /
//                          -DNWK_START_DELAY=100 -DEXTENDED_JOINING_RANDOM_M /
//                          ASK=0x007F -DBEACON_REQUEST_DELAY=100             /
//                          -DBEACON_REQ_DELAY_MASK=0x00FF                    /
//                          -DLINK_STATUS_JITTER_MASK=0x007F                  /
//                          -DROUTE_EXPIRY_TIME=30 -DAPSC_ACK_WAIT_DURATION_P /
//                          OLLED=3000 -DNWK_INDIRECT_MSG_TIMEOUT=7           /
//                          -DMAX_RREQ_ENTRIES=8 -DAPSC_MAX_FRAME_RETRIES=3   /
//                          -DNWK_MAX_DATA_RETRIES=2                          /
//                          -DMAX_POLL_FAILURE_RETRIES=2 -DMAX_BCAST=9        /
//                          -DAPS_MAX_GROUPS=16 -DMAX_RTG_ENTRIES=40          /
//                          -DNWK_MAX_BINDING_ENTRIES=4                       /
//                          -DMAX_BINDING_CLUSTER_IDS=4                       /
//                          "-DDEFAULT_KEY={0x01, 0x03, 0x05, 0x07, 0x09,     /
//                          0x0B, 0x0D, 0x0F, 0x00, 0x02, 0x04, 0x06, 0x08,   /
//                          0x0A, 0x0C, 0x0D}" -DMAC_MAX_FRAME_SIZE=116       /
//                          -DZDNWKMGR_MIN_TRANSMISSIONS=20 "-DCONST=const    /
//                          __code" -DGENERIC=__generic                       /
//                          -DRFD_RCVC_ALWAYS_ON=FALSE -DPOLL_RATE=8000       /
//                          -DQUEUED_POLL_RATE=100 -DRESPONSE_POLL_RATE=100)  /
//                          -DREJOIN_POLL_RATE=440 C:\Users\John\Dropbox\grad /
//                          _proj\zstack-cc2530-enddevice\Components\hal\targ /
//                          et\CC2530EB\hal_i2c.c -D HAL_ADC=FALSE -D         /
//                          HAL_KEY=FALSE -D HAL_LED=FALSE -D HAL_LCD=FALSE   /
//                          -D NWK_AUTO_POLL -D ZTOOL_P1 -D MT_TASK -D        /
//                          MT_SYS_FUNC -D MT_ZDO_FUNC -D POWER_SAVING -D     /
//                          NV_STORE -lC C:\Users\John\Dropbox\grad_proj\zsta /
//                          ck-cc2530-enddevice\Projects\zstack\Samples\Gener /
//                          icApp\CC2530DB\EndDeviceEB\List\ -lA              /
//                          C:\Users\John\Dropbox\grad_proj\zstack-cc2530-end /
//                          device\Projects\zstack\Samples\GenericApp\CC2530D /
//                          B\EndDeviceEB\List\ --diag_suppress Pe001,Pa010   /
//                          -o C:\Users\John\Dropbox\grad_proj\zstack-cc2530- /
//                          enddevice\Projects\zstack\Samples\GenericApp\CC25 /
//                          30DB\EndDeviceEB\Obj\ -e --require_prototypes     /
//                          --no_code_motion --debug --core=plain             /
//                          --dptr=16,1 --data_model=large                    /
//                          --code_model=banked --calling_convention=xdata_re /
//                          entrant --place_constants=data_rom                /
//                          --nr_virtual_regs 16 -I                           /
//                          C:\Users\John\Dropbox\grad_proj\zstack-cc2530-end /
//                          device\Projects\zstack\Samples\GenericApp\CC2530D /
//                          B\ -I C:\Users\John\Dropbox\grad_proj\zstack-cc25 /
//                          30-enddevice\Projects\zstack\Samples\GenericApp\C /
//                          C2530DB\..\Source\ -I C:\Users\John\Dropbox\grad_ /
//                          proj\zstack-cc2530-enddevice\Projects\zstack\Samp /
//                          les\GenericApp\CC2530DB\..\..\..\ZMain\TI2530DB\  /
//                          -I C:\Users\John\Dropbox\grad_proj\zstack-cc2530- /
//                          enddevice\Projects\zstack\Samples\GenericApp\CC25 /
//                          30DB\..\..\..\..\..\Components\hal\include\ -I    /
//                          C:\Users\John\Dropbox\grad_proj\zstack-cc2530-end /
//                          device\Projects\zstack\Samples\GenericApp\CC2530D /
//                          B\..\..\..\..\..\Components\hal\target\CC2530EB\  /
//                          -I C:\Users\John\Dropbox\grad_proj\zstack-cc2530- /
//                          enddevice\Projects\zstack\Samples\GenericApp\CC25 /
//                          30DB\..\..\..\..\..\Components\mac\include\ -I    /
//                          C:\Users\John\Dropbox\grad_proj\zstack-cc2530-end /
//                          device\Projects\zstack\Samples\GenericApp\CC2530D /
//                          B\..\..\..\..\..\Components\mac\high_level\ -I    /
//                          C:\Users\John\Dropbox\grad_proj\zstack-cc2530-end /
//                          device\Projects\zstack\Samples\GenericApp\CC2530D /
//                          B\..\..\..\..\..\Components\mac\low_level\srf04\  /
//                          -I C:\Users\John\Dropbox\grad_proj\zstack-cc2530- /
//                          enddevice\Projects\zstack\Samples\GenericApp\CC25 /
//                          30DB\..\..\..\..\..\Components\mac\low_level\srf0 /
//                          4\single_chip\ -I C:\Users\John\Dropbox\grad_proj /
//                          \zstack-cc2530-enddevice\Projects\zstack\Samples\ /
//                          GenericApp\CC2530DB\..\..\..\..\..\Components\mt\ /
//                           -I C:\Users\John\Dropbox\grad_proj\zstack-cc2530 /
//                          -enddevice\Projects\zstack\Samples\GenericApp\CC2 /
//                          530DB\..\..\..\..\..\Components\osal\include\ -I  /
//                          C:\Users\John\Dropbox\grad_proj\zstack-cc2530-end /
//                          device\Projects\zstack\Samples\GenericApp\CC2530D /
//                          B\..\..\..\..\..\Components\osal\mcu\ccsoc\ -I    /
//                          C:\Users\John\Dropbox\grad_proj\zstack-cc2530-end /
//                          device\Projects\zstack\Samples\GenericApp\CC2530D /
//                          B\..\..\..\..\..\Components\services\saddr\ -I    /
//                          C:\Users\John\Dropbox\grad_proj\zstack-cc2530-end /
//                          device\Projects\zstack\Samples\GenericApp\CC2530D /
//                          B\..\..\..\..\..\Components\services\sdata\ -I    /
//                          C:\Users\John\Dropbox\grad_proj\zstack-cc2530-end /
//                          device\Projects\zstack\Samples\GenericApp\CC2530D /
//                          B\..\..\..\..\..\Components\stack\af\ -I          /
//                          C:\Users\John\Dropbox\grad_proj\zstack-cc2530-end /
//                          device\Projects\zstack\Samples\GenericApp\CC2530D /
//                          B\..\..\..\..\..\Components\stack\nwk\ -I         /
//                          C:\Users\John\Dropbox\grad_proj\zstack-cc2530-end /
//                          device\Projects\zstack\Samples\GenericApp\CC2530D /
//                          B\..\..\..\..\..\Components\stack\sapi\ -I        /
//                          C:\Users\John\Dropbox\grad_proj\zstack-cc2530-end /
//                          device\Projects\zstack\Samples\GenericApp\CC2530D /
//                          B\..\..\..\..\..\Components\stack\sec\ -I         /
//                          C:\Users\John\Dropbox\grad_proj\zstack-cc2530-end /
//                          device\Projects\zstack\Samples\GenericApp\CC2530D /
//                          B\..\..\..\..\..\Components\stack\sys\ -I         /
//                          C:\Users\John\Dropbox\grad_proj\zstack-cc2530-end /
//                          device\Projects\zstack\Samples\GenericApp\CC2530D /
//                          B\..\..\..\..\..\Components\stack\zdo\ -I         /
//                          C:\Users\John\Dropbox\grad_proj\zstack-cc2530-end /
//                          device\Projects\zstack\Samples\GenericApp\CC2530D /
//                          B\..\..\..\..\..\Components\zmac\ -I              /
//                          C:\Users\John\Dropbox\grad_proj\zstack-cc2530-end /
//                          device\Projects\zstack\Samples\GenericApp\CC2530D /
//                          B\..\..\..\..\..\Components\zmac\f8w\ -I          /
//                          "C:\Program Files (x86)\IAR Systems\Embedded      /
//                          Workbench 5.4\8051\INC\" -I "C:\Program Files     /
//                          (x86)\IAR Systems\Embedded Workbench              /
//                          5.4\8051\INC\CLIB\" -Ohz                          /
//    List file          =  C:\Users\John\Dropbox\grad_proj\zstack-cc2530-end /
//                          device\Projects\zstack\Samples\GenericApp\CC2530D /
//                          B\EndDeviceEB\List\hal_i2c.s51                    /
//                                                                            /
//                                                                            /
///////////////////////////////////////////////////////////////////////////////

        NAME hal_i2c

        RTMODEL "__calling_convention", "xdata_reentrant"
        RTMODEL "__code_model", "banked"
        RTMODEL "__core", "plain"
        RTMODEL "__data_model", "large"
        RTMODEL "__dptr_size", "16"
        RTMODEL "__extended_stack", "disabled"
        RTMODEL "__location_for_constants", "data"
        RTMODEL "__number_of_dptrs", "1"
        RTMODEL "__rt_version", "1"

        RSEG DOVERLAY:DATA:NOROOT(0)
        RSEG IOVERLAY:IDATA:NOROOT(0)
        RSEG ISTACK:IDATA:NOROOT(0)
        RSEG PSTACK:XDATA:NOROOT(0)
        RSEG XSTACK:XDATA:NOROOT(0)

        EXTERN ?BANKED_ENTER_XDATA
        EXTERN ?BANKED_LEAVE_XDATA
        EXTERN ?BDISPATCH
        EXTERN ?BRET
        EXTERN ?S_SHL
        EXTERN ?V0
        EXTERN __INIT_XDATA_Z

        PUBLIC ??HalI2CInit?relay
        FUNCTION ??HalI2CInit?relay,0203H
        PUBLIC ??HalI2CReceive?relay
        FUNCTION ??HalI2CReceive?relay,0203H
        PUBLIC ??HalI2CSend?relay
        FUNCTION ??HalI2CSend?relay,0203H
        FUNCTION ??hali2cClock?relay,0203H
        FUNCTION ??hali2cReceiveByte?relay,0203H
        FUNCTION ??hali2cSendByte?relay,0203H
        FUNCTION ??hali2cSendDeviceAddress?relay,0203H
        FUNCTION ??hali2cStart?relay,0203H
        FUNCTION ??hali2cStop?relay,0203H
        FUNCTION ??hali2cWrite?relay,0203H
        PUBLIC HalI2CInit
        FUNCTION HalI2CInit,0203H
        ARGFRAME XSTACK, 0, STACK
        LOCFRAME ISTACK, 2, STACK
        PUBLIC HalI2CReceive
        FUNCTION HalI2CReceive,021203H
        ARGFRAME XSTACK, 0, STACK
        LOCFRAME ISTACK, 1, STACK
        LOCFRAME XSTACK, 13, STACK
        PUBLIC HalI2CSend
        FUNCTION HalI2CSend,021203H
        ARGFRAME XSTACK, 0, STACK
        LOCFRAME XSTACK, 14, STACK
        PUBWEAK P1DIR
        PUBWEAK P1SEL
        PUBWEAK P2INP
        PUBWEAK P2SEL
        PUBWEAK _A_P1
        FUNCTION hali2cClock,021203H
        ARGFRAME XSTACK, 13, STACK
        ARGFRAME IOVERLAY, 0, STATIC
        ARGFRAME DOVERLAY, 0, STATIC
        LOCFRAME ISTACK, 1, STACK
        FUNCTION hali2cReceiveByte,021203H
        ARGFRAME XSTACK, 13, STACK
        ARGFRAME IOVERLAY, 0, STATIC
        ARGFRAME DOVERLAY, 0, STATIC
        LOCFRAME XSTACK, 12, STACK
        FUNCTION hali2cSendByte,021203H
        ARGFRAME XSTACK, 14, STACK
        ARGFRAME IOVERLAY, 0, STATIC
        ARGFRAME DOVERLAY, 0, STATIC
        LOCFRAME XSTACK, 9, STACK
        FUNCTION hali2cSendDeviceAddress,021203H
        ARGFRAME XSTACK, 14, STACK
        ARGFRAME IOVERLAY, 0, STATIC
        ARGFRAME DOVERLAY, 0, STATIC
        LOCFRAME XSTACK, 9, STACK
        FUNCTION hali2cStart,021203H
        ARGFRAME XSTACK, 9, STACK
        ARGFRAME IOVERLAY, 0, STATIC
        ARGFRAME DOVERLAY, 0, STATIC
        LOCFRAME XSTACK, 9, STACK
        FUNCTION hali2cStop,021203H
        ARGFRAME XSTACK, 14, STACK
        ARGFRAME IOVERLAY, 0, STATIC
        ARGFRAME DOVERLAY, 0, STATIC
        LOCFRAME ISTACK, 2, STACK
        FUNCTION hali2cWait,0203H
        ARGFRAME XSTACK, 12, STACK
        ARGFRAME IOVERLAY, 0, STATIC
        ARGFRAME DOVERLAY, 0, STATIC
        FUNCTION hali2cWrite,021203H
        ARGFRAME XSTACK, 13, STACK
        ARGFRAME IOVERLAY, 0, STATIC
        ARGFRAME DOVERLAY, 0, STATIC
        LOCFRAME XSTACK, 9, STACK
        
        CFI Names cfiNames0
        CFI StackFrame CFA_SP SP IDATA
        CFI StackFrame CFA_PSP16 PSP16 XDATA
        CFI StackFrame CFA_XSP16 XSP16 XDATA
        CFI StaticOverlayFrame CFA_IOVERLAY IOVERLAY
        CFI StaticOverlayFrame CFA_DOVERLAY DOVERLAY
        CFI Resource `PSW.CY`:1, `B.BR0`:1, `B.BR1`:1, `B.BR2`:1, `B.BR3`:1
        CFI Resource `B.BR4`:1, `B.BR5`:1, `B.BR6`:1, `B.BR7`:1, `VB.BR8`:1
        CFI Resource `VB.BR9`:1, `VB.BR10`:1, `VB.BR11`:1, `VB.BR12`:1
        CFI Resource `VB.BR13`:1, `VB.BR14`:1, `VB.BR15`:1, VB:8, B:8, A:8
        CFI Resource PSW:8, DPL0:8, DPH0:8, R0:8, R1:8, R2:8, R3:8, R4:8, R5:8
        CFI Resource R6:8, R7:8, V0:8, V1:8, V2:8, V3:8, V4:8, V5:8, V6:8, V7:8
        CFI Resource V8:8, V9:8, V10:8, V11:8, V12:8, V13:8, V14:8, V15:8, SP:8
        CFI Resource PSPH:8, PSPL:8, PSP16:16, XSPH:8, XSPL:8, XSP16:16
        CFI VirtualResource ?RET:24
        CFI Resource ?BRET_EXT:8
        CFI VirtualResource ?RET_HIGH:8, ?RET_LOW:8
        CFI ResourceParts PSP16 PSPH, PSPL
        CFI ResourceParts XSP16 XSPH, XSPL
        CFI ResourceParts ?RET ?BRET_EXT, ?RET_HIGH, ?RET_LOW
        CFI EndNames cfiNames0
        
        CFI Common cfiCommon0 Using cfiNames0
        CFI CodeAlign 1
        CFI DataAlign -1
        CFI ReturnAddress ?RET CODE
        CFI CFA_DOVERLAY Used
        CFI CFA_IOVERLAY Used
        CFI CFA_SP SP+-3
        CFI CFA_PSP16 PSP16+0
        CFI CFA_XSP16 XSP16+0
        CFI `PSW.CY` SameValue
        CFI `B.BR0` SameValue
        CFI `B.BR1` SameValue
        CFI `B.BR2` SameValue
        CFI `B.BR3` SameValue
        CFI `B.BR4` SameValue
        CFI `B.BR5` SameValue
        CFI `B.BR6` SameValue
        CFI `B.BR7` SameValue
        CFI `VB.BR8` SameValue
        CFI `VB.BR9` SameValue
        CFI `VB.BR10` SameValue
        CFI `VB.BR11` SameValue
        CFI `VB.BR12` SameValue
        CFI `VB.BR13` SameValue
        CFI `VB.BR14` SameValue
        CFI `VB.BR15` SameValue
        CFI VB SameValue
        CFI B Undefined
        CFI A Undefined
        CFI PSW SameValue
        CFI DPL0 SameValue
        CFI DPH0 SameValue
        CFI R0 Undefined
        CFI R1 Undefined
        CFI R2 Undefined
        CFI R3 Undefined
        CFI R4 Undefined
        CFI R5 Undefined
        CFI R6 SameValue
        CFI R7 SameValue
        CFI V0 SameValue
        CFI V1 SameValue
        CFI V2 SameValue
        CFI V3 SameValue
        CFI V4 SameValue
        CFI V5 SameValue
        CFI V6 SameValue
        CFI V7 SameValue
        CFI V8 SameValue
        CFI V9 SameValue
        CFI V10 SameValue
        CFI V11 SameValue
        CFI V12 SameValue
        CFI V13 SameValue
        CFI V14 SameValue
        CFI V15 SameValue
        CFI PSPH Undefined
        CFI PSPL Undefined
        CFI XSPH Undefined
        CFI XSPL Undefined
        CFI ?RET Concat
        CFI ?BRET_EXT Frame(CFA_SP, 3)
        CFI ?RET_HIGH Frame(CFA_SP, 2)
        CFI ?RET_LOW Frame(CFA_SP, 1)
        CFI EndCommon cfiCommon0
        
        
        CFI Common cfiCommon1 Using cfiNames0
        CFI CodeAlign 1
        CFI DataAlign -1
        CFI ReturnAddress ?RET CODE
        CFI CFA_DOVERLAY Used
        CFI CFA_IOVERLAY Used
        CFI CFA_SP SP+-2
        CFI CFA_PSP16 PSP16+0
        CFI CFA_XSP16 XSP16+0
        CFI `PSW.CY` SameValue
        CFI `B.BR0` SameValue
        CFI `B.BR1` SameValue
        CFI `B.BR2` SameValue
        CFI `B.BR3` SameValue
        CFI `B.BR4` SameValue
        CFI `B.BR5` SameValue
        CFI `B.BR6` SameValue
        CFI `B.BR7` SameValue
        CFI `VB.BR8` SameValue
        CFI `VB.BR9` SameValue
        CFI `VB.BR10` SameValue
        CFI `VB.BR11` SameValue
        CFI `VB.BR12` SameValue
        CFI `VB.BR13` SameValue
        CFI `VB.BR14` SameValue
        CFI `VB.BR15` SameValue
        CFI VB SameValue
        CFI B SameValue
        CFI A SameValue
        CFI PSW SameValue
        CFI DPL0 SameValue
        CFI DPH0 SameValue
        CFI R0 SameValue
        CFI R1 SameValue
        CFI R2 SameValue
        CFI R3 SameValue
        CFI R4 SameValue
        CFI R5 SameValue
        CFI R6 SameValue
        CFI R7 SameValue
        CFI V0 SameValue
        CFI V1 SameValue
        CFI V2 SameValue
        CFI V3 SameValue
        CFI V4 SameValue
        CFI V5 SameValue
        CFI V6 SameValue
        CFI V7 SameValue
        CFI V8 SameValue
        CFI V9 SameValue
        CFI V10 SameValue
        CFI V11 SameValue
        CFI V12 SameValue
        CFI V13 SameValue
        CFI V14 SameValue
        CFI V15 SameValue
        CFI PSPH Undefined
        CFI PSPL Undefined
        CFI XSPH Undefined
        CFI XSPL Undefined
        CFI ?RET Concat
        CFI ?BRET_EXT SameValue
        CFI ?RET_HIGH Frame(CFA_SP, 2)
        CFI ?RET_LOW Frame(CFA_SP, 1)
        CFI EndCommon cfiCommon1
        
        
        CFI Common cfiCommon2 Using cfiNames0
        CFI CodeAlign 1
        CFI DataAlign -1
        CFI ReturnAddress ?RET CODE
        CFI CFA_DOVERLAY Used
        CFI CFA_IOVERLAY Used
        CFI CFA_SP SP+-2
        CFI CFA_PSP16 PSP16+0
        CFI CFA_XSP16 XSP16+0
        CFI `PSW.CY` SameValue
        CFI `B.BR0` SameValue
        CFI `B.BR1` SameValue
        CFI `B.BR2` SameValue
        CFI `B.BR3` SameValue
        CFI `B.BR4` SameValue
        CFI `B.BR5` SameValue
        CFI `B.BR6` SameValue
        CFI `B.BR7` SameValue
        CFI `VB.BR8` SameValue
        CFI `VB.BR9` SameValue
        CFI `VB.BR10` SameValue
        CFI `VB.BR11` SameValue
        CFI `VB.BR12` SameValue
        CFI `VB.BR13` SameValue
        CFI `VB.BR14` SameValue
        CFI `VB.BR15` SameValue
        CFI VB SameValue
        CFI B Undefined
        CFI A Undefined
        CFI PSW SameValue
        CFI DPL0 SameValue
        CFI DPH0 SameValue
        CFI R0 Undefined
        CFI R1 Undefined
        CFI R2 Undefined
        CFI R3 Undefined
        CFI R4 Undefined
        CFI R5 Undefined
        CFI R6 SameValue
        CFI R7 SameValue
        CFI V0 SameValue
        CFI V1 SameValue
        CFI V2 SameValue
        CFI V3 SameValue
        CFI V4 SameValue
        CFI V5 SameValue
        CFI V6 SameValue
        CFI V7 SameValue
        CFI V8 SameValue
        CFI V9 SameValue
        CFI V10 SameValue
        CFI V11 SameValue
        CFI V12 SameValue
        CFI V13 SameValue
        CFI V14 SameValue
        CFI V15 SameValue
        CFI PSPH Undefined
        CFI PSPL Undefined
        CFI XSPH Undefined
        CFI XSPL Undefined
        CFI ?RET Concat
        CFI ?BRET_EXT SameValue
        CFI ?RET_HIGH Frame(CFA_SP, 2)
        CFI ?RET_LOW Frame(CFA_SP, 1)
        CFI EndCommon cfiCommon2
        
HalI2CInit          SYMBOL "HalI2CInit"
??HalI2CInit?relay  SYMBOL "?relay", HalI2CInit
HalI2CReceive       SYMBOL "HalI2CReceive"
??HalI2CReceive?relay SYMBOL "?relay", HalI2CReceive
HalI2CSend          SYMBOL "HalI2CSend"
??HalI2CSend?relay  SYMBOL "?relay", HalI2CSend

// C:\Users\John\Dropbox\grad_proj\zstack-cc2530-enddevice\Components\hal\target\CC2530EB\hal_i2c.c
//    1 /**************************************************************************************************
//    2   Filename:       hal_i2c.c
//    3   Revised:        $Date: 2010-06-28 17:37:07 -0700 (Mon, 28 Jun 2010) $
//    4   Revision:       $Revision: 22837 $
//    5 
//    6   Description:    I2C driver implementation.
//    7 
//    8 
//    9   Copyright 2006 - 2010 Texas Instruments Incorporated. All rights reserved.
//   10 
//   11   IMPORTANT: Your use of this Software is limited to those specific rights
//   12   granted under the terms of a software license agreement between the user
//   13   who downloaded the software, his/her employer (which must be your employer)
//   14   and Texas Instruments Incorporated (the "License").  You may not use this
//   15   Software unless you agree to abide by the terms of the License. The License
//   16   limits your use, and you acknowledge, that the Software may not be modified,
//   17   copied or distributed unless embedded on a Texas Instruments microcontroller
//   18   or used solely and exclusively in conjunction with a Texas Instruments radio
//   19   frequency transceiver, which is integrated into your product.  Other than for
//   20   the foregoing purpose, you may not use, reproduce, copy, prepare derivative
//   21   works of, modify, distribute, perform, display or sell this Software and/or
//   22   its documentation for any purpose.
//   23 
//   24   YOU FURTHER ACKNOWLEDGE AND AGREE THAT THE SOFTWARE AND DOCUMENTATION ARE
//   25   PROVIDED “AS IS” WITHOUT WARRANTY OF ANY KIND, EITHER EXPRESS OR IMPLIED, 
//   26   INCLUDING WITHOUT LIMITATION, ANY WARRANTY OF MERCHANTABILITY, TITLE, 
//   27   NON-INFRINGEMENT AND FITNESS FOR A PARTICULAR PURPOSE. IN NO EVENT SHALL
//   28   TEXAS INSTRUMENTS OR ITS LICENSORS BE LIABLE OR OBLIGATED UNDER CONTRACT,
//   29   NEGLIGENCE, STRICT LIABILITY, CONTRIBUTION, BREACH OF WARRANTY, OR OTHER
//   30   LEGAL EQUITABLE THEORY ANY DIRECT OR INDIRECT DAMAGES OR EXPENSES
//   31   INCLUDING BUT NOT LIMITED TO ANY INCIDENTAL, SPECIAL, INDIRECT, PUNITIVE
//   32   OR CONSEQUENTIAL DAMAGES, LOST PROFITS OR LOST DATA, COST OF PROCUREMENT
//   33   OF SUBSTITUTE GOODS, TECHNOLOGY, SERVICES, OR ANY CLAIMS BY THIRD PARTIES
//   34   (INCLUDING BUT NOT LIMITED TO ANY DEFENSE THEREOF), OR OTHER SIMILAR COSTS.
//   35 
//   36   Should you have any questions regarding your right to use this Software,
//   37   contact Texas Instruments Incorporated at www.TI.com. 
//   38 **************************************************************************************************/
//   39 
//   40 /**************************************************************************************************
//   41     This file contains the I2C interface to off-chip serial EEPROM. While
//   42     much of the driver is generic, certain portions are specific to the
//   43     Atmel part AT24C1024. For example, the 17th address bit occurs in the
//   44     device address byte where one of the address pins should be. Different
//   45     1 Mb parts use a different bit location. This could be abstracted at
//   46     a later time if this is the only differentce among these parts.
//   47 **************************************************************************************************/
//   48 
//   49 #include "ioCC2530.h"

        ASEGN SFR_AN:DATA:NOROOT,090H
// union <unnamed> volatile __sfr _A_P1
_A_P1:
        DS 1

        ASEGN SFR_AN:DATA:NOROOT,0f4H
// unsigned char volatile __sfr P1SEL
P1SEL:
        DS 1

        ASEGN SFR_AN:DATA:NOROOT,0f5H
// unsigned char volatile __sfr P2SEL
P2SEL:
        DS 1

        ASEGN SFR_AN:DATA:NOROOT,0f7H
// unsigned char volatile __sfr P2INP
P2INP:
        DS 1

        ASEGN SFR_AN:DATA:NOROOT,0feH
// unsigned char volatile __sfr P1DIR
P1DIR:
        DS 1
//   50 #include "zcomdef.h"
//   51 #include "hal_i2c.h"
//   52 
//   53 #define STATIC static
//   54 
//   55 #if !defined HAL_I2C_RETRY_CNT
//   56 #define HAL_I2C_RETRY_CNT  3
//   57 #endif
//   58 
//   59 // the default cofiguration below uses P1.6 for SDA and P0.0 for SCL.
//   60 // change these as needed.
//   61 #ifndef OCM_CLK_PORT
//   62   #define OCM_CLK_PORT  1
//   63 #endif
//   64 
//   65 #ifndef OCM_DATA_PORT
//   66   #define OCM_DATA_PORT   1
//   67 #endif
//   68 
//   69 #ifndef OCM_CLK_PIN
//   70   #define OCM_CLK_PIN   6
//   71 #endif
//   72 
//   73 #ifndef OCM_DATA_PIN
//   74   #define OCM_DATA_PIN    7
//   75 #endif
//   76 
//   77 // General I/O definitions
//   78 #define IO_GIO  0  // General purpose I/O
//   79 #define IO_PER  1  // Peripheral function
//   80 #define IO_IN   0  // Input pin
//   81 #define IO_OUT  1  // Output pin
//   82 #define IO_PUD  0  // Pullup/pulldn input
//   83 #define IO_TRI  1  // Tri-state input
//   84 #define IO_PUP  0  // Pull-up input pin
//   85 #define IO_PDN  1  // Pull-down input pin
//   86 
//   87 #define OCM_ADDRESS  (0xA0)
//   88 #define OCM_READ     (0x01)
//   89 #define OCM_WRITE    (0x00)
//   90 #define SMB_ACK      (0)
//   91 #define SMB_NAK      (1)
//   92 #define SEND_STOP    (0)
//   93 #define NOSEND_STOP  (1)
//   94 #define SEND_START   (0)
//   95 #define NOSEND_START (1)
//   96 
//   97 // device specific as to where the 17th address bit goes...
//   98 
//   99 // *************************   MACROS   ************************************
//  100 #undef P
//  101 
//  102   /* I/O PORT CONFIGURATION */
//  103 #define CAT1(x,y) x##y  // Concatenates 2 strings
//  104 #define CAT2(x,y) CAT1(x,y)  // Forces evaluation of CAT1
//  105 
//  106 // OCM port I/O defintions
//  107 // Builds I/O port name: PNAME(1,INP) ==> P1INP
//  108 #define PNAME(y,z) CAT2(P,CAT2(y,z))
//  109 // Builds I/O bit name: BNAME(1,2) ==> P1_2
//  110 #define BNAME(port,pin) CAT2(CAT2(P,port),CAT2(_,pin))
//  111 
//  112 // OCM port I/O defintions
//  113 #define OCM_SCL BNAME(OCM_CLK_PORT, OCM_CLK_PIN)
//  114 #define OCM_SDA BNAME(OCM_DATA_PORT, OCM_DATA_PIN)
//  115 
//  116 #define IO_DIR_PORT_PIN(port, pin, dir) \ 
//  117 {\ 
//  118   if ( dir == IO_OUT ) \ 
//  119     PNAME(port,DIR) |= (1<<(pin)); \ 
//  120   else \ 
//  121     PNAME(port,DIR) &= ~(1<<(pin)); \ 
//  122 }
//  123 
//  124 #define OCM_DATA_HIGH()\ 
//  125 { \ 
//  126   IO_DIR_PORT_PIN(OCM_DATA_PORT, OCM_DATA_PIN, IO_IN); \ 
//  127 }
//  128 
//  129 #define OCM_DATA_LOW() \ 
//  130 { \ 
//  131   IO_DIR_PORT_PIN(OCM_DATA_PORT, OCM_DATA_PIN, IO_OUT); \ 
//  132   OCM_SDA = 0;\ 
//  133 }
//  134 
//  135 #define IO_FUNC_PORT_PIN(port, pin, func) \ 
//  136 { \ 
//  137   if( port < 2 ) \ 
//  138   { \ 
//  139     if ( func == IO_PER ) \ 
//  140       PNAME(port,SEL) |= (1<<(pin)); \ 
//  141     else \ 
//  142       PNAME(port,SEL) &= ~(1<<(pin)); \ 
//  143   } \ 
//  144   else \ 
//  145   { \ 
//  146     if ( func == IO_PER ) \ 
//  147       P2SEL |= (1<<(pin>>1)); \ 
//  148     else \ 
//  149       P2SEL &= ~(1<<(pin>>1)); \ 
//  150   } \ 
//  151 }
//  152 
//  153 #define IO_IMODE_PORT_PIN(port, pin, mode) \ 
//  154 { \ 
//  155   if ( mode == IO_TRI ) \ 
//  156     PNAME(port,INP) |= (1<<(pin)); \ 
//  157   else \ 
//  158     PNAME(port,INP) &= ~(1<<(pin)); \ 
//  159 }
//  160 
//  161 #define IO_PUD_PORT(port, dir) \ 
//  162 { \ 
//  163   if ( dir == IO_PDN ) \ 
//  164     P2INP |= (1<<(port+5)); \ 
//  165   else \ 
//  166     P2INP &= ~(1<<(port+5)); \ 
//  167 }
//  168 
//  169 STATIC void   hali2cSend( uint8 *buffer, uint16 len, uint8 sendStart, uint8 sendStop );
//  170 STATIC _Bool  hali2cSendByte( uint8 dByte );
//  171 STATIC void   hali2cWrite( bool dBit );
//  172 STATIC void   hali2cClock( bool dir );
//  173 STATIC void   hali2cStart( void );
//  174 STATIC void   hali2cStop( void );
//  175 STATIC void   hali2cReceive( uint8 address, uint8 *buffer, uint16 len );
//  176 STATIC uint8  hali2cReceiveByte( void );
//  177 STATIC _Bool  hali2cRead( void );
//  178 STATIC void   hali2cSendDeviceAddress(uint8 address);
//  179 
//  180 
//  181 STATIC __near_func void   hali2cWait( uint8 );
//  182 

        RSEG XDATA_Z:XDATA:NOROOT(0)
//  183 STATIC uint8 s_xmemIsInit;
s_xmemIsInit:
        DS 1
        REQUIRE __INIT_XDATA_Z
//  184 
//  185 /*********************************************************************
//  186  * @fn      HalI2CInit
//  187  * @brief   Initializes two-wire serial I/O bus
//  188  * @param   void
//  189  * @return  void
//  190  */

        RSEG BANKED_CODE:CODE:NOROOT(0)
//  191 void HalI2CInit( void )
HalI2CInit:
        CFI Block cfiBlock0 Using cfiCommon0
        CFI Function HalI2CInit
//  192 {
        PUSH    DPL
        CFI DPL0 Frame(CFA_SP, 4)
        CFI CFA_SP SP+-4
        PUSH    DPH
        CFI DPH0 Frame(CFA_SP, 5)
        CFI CFA_SP SP+-5
        ; Saved register size: 2
        ; Auto size: 0
//  193   if (!s_xmemIsInit)  {
        MOV     DPTR,#s_xmemIsInit
        MOVX    A,@DPTR
        JNZ     ??HalI2CInit_0
//  194     s_xmemIsInit = 1;
        MOV     A,#0x1
        MOVX    @DPTR,A
//  195 
//  196 //    // Set port pins as inputs
//  197     IO_DIR_PORT_PIN( OCM_CLK_PORT, OCM_CLK_PIN, IO_IN );
        ANL     0xfe,#0xbf
//  198     IO_DIR_PORT_PIN( OCM_DATA_PORT, OCM_DATA_PIN, IO_IN );
        ANL     0xfe,#0x7f
//  199 //
//  200 //    // Set for general I/O operation
//  201     IO_FUNC_PORT_PIN( OCM_CLK_PORT, OCM_CLK_PIN, IO_GIO );
        ANL     0xf4,#0xbf
//  202     IO_FUNC_PORT_PIN( OCM_DATA_PORT, OCM_DATA_PIN, IO_GIO );
        ANL     0xf4,#0x7f
//  203 //
//  204 //    // Set I/O mode for pull-up/pull-down
//  205     IO_IMODE_PORT_PIN( OCM_CLK_PORT, OCM_CLK_PIN, IO_PUD );
        CLR     0x90.6
//  206     IO_IMODE_PORT_PIN( OCM_DATA_PORT, OCM_DATA_PIN, IO_PUD );
        CLR     0x90.7
//  207 //
//  208 //    // Set pins to pull-up
//  209     IO_PUD_PORT( OCM_CLK_PORT, IO_PUP );
        ANL     0xf7,#0xbf
//  210     IO_PUD_PORT( OCM_DATA_PORT, IO_PUP );
        ANL     0xf7,#0xbf
        CFI EndBlock cfiBlock0
//  211   }
//  212 }
??HalI2CInit_0:
        REQUIRE ?Subroutine0
        REQUIRE _A_P1
        REQUIRE P1SEL
        REQUIRE P2SEL
        REQUIRE P2INP
        REQUIRE P1DIR
        ; // Fall through to label ?Subroutine0

        RSEG BANKED_CODE:CODE:NOROOT(0)
?Subroutine0:
        CFI Block cfiBlock1 Using cfiCommon0
        CFI NoFunction
        CFI CFA_SP SP+-5
        CFI DPL0 Frame(CFA_SP, 4)
        CFI DPH0 Frame(CFA_SP, 5)
        POP     DPH
        CFI CFA_SP SP+-4
        CFI DPH0 SameValue
        POP     DPL
        CFI CFA_SP SP+-3
        CFI DPL0 SameValue
        LJMP    ?BRET
        CFI EndBlock cfiBlock1
//  213 

        RSEG BANKED_CODE:CODE:NOROOT(0)
//  214 int8 HalI2CReceive(uint8 address, uint8 *buf, uint16 len)
HalI2CReceive:
        CFI Block cfiBlock2 Using cfiCommon0
        CFI Function HalI2CReceive
//  215 {
        FUNCALL HalI2CReceive, hali2cSendDeviceAddress
        LOCFRAME ISTACK, 0, STACK
        LOCFRAME PSTACK, 0, STACK
        LOCFRAME XSTACK, 13, STACK
        LOCFRAME IOVERLAY, 0, STATIC
        LOCFRAME DOVERLAY, 0, STATIC
        ARGFRAME ISTACK, 0, STACK
        ARGFRAME PSTACK, 0, STACK
        ARGFRAME XSTACK, 13, STACK
        ARGFRAME IOVERLAY, 0, STATIC
        ARGFRAME DOVERLAY, 0, STATIC
        FUNCALL HalI2CReceive, hali2cClock
        LOCFRAME ISTACK, 0, STACK
        LOCFRAME PSTACK, 0, STACK
        LOCFRAME XSTACK, 13, STACK
        LOCFRAME IOVERLAY, 0, STATIC
        LOCFRAME DOVERLAY, 0, STATIC
        ARGFRAME ISTACK, 0, STACK
        ARGFRAME PSTACK, 0, STACK
        ARGFRAME XSTACK, 13, STACK
        ARGFRAME IOVERLAY, 0, STATIC
        ARGFRAME DOVERLAY, 0, STATIC
        FUNCALL HalI2CReceive, hali2cReceiveByte
        LOCFRAME ISTACK, 0, STACK
        LOCFRAME PSTACK, 0, STACK
        LOCFRAME XSTACK, 13, STACK
        LOCFRAME IOVERLAY, 0, STATIC
        LOCFRAME DOVERLAY, 0, STATIC
        ARGFRAME ISTACK, 0, STACK
        ARGFRAME PSTACK, 0, STACK
        ARGFRAME XSTACK, 13, STACK
        ARGFRAME IOVERLAY, 0, STATIC
        ARGFRAME DOVERLAY, 0, STATIC
        FUNCALL HalI2CReceive, hali2cWrite
        LOCFRAME ISTACK, 0, STACK
        LOCFRAME PSTACK, 0, STACK
        LOCFRAME XSTACK, 13, STACK
        LOCFRAME IOVERLAY, 0, STATIC
        LOCFRAME DOVERLAY, 0, STATIC
        ARGFRAME ISTACK, 0, STACK
        ARGFRAME PSTACK, 0, STACK
        ARGFRAME XSTACK, 13, STACK
        ARGFRAME IOVERLAY, 0, STATIC
        ARGFRAME DOVERLAY, 0, STATIC
        FUNCALL HalI2CReceive, hali2cClock
        LOCFRAME ISTACK, 0, STACK
        LOCFRAME PSTACK, 0, STACK
        LOCFRAME XSTACK, 13, STACK
        LOCFRAME IOVERLAY, 0, STATIC
        LOCFRAME DOVERLAY, 0, STATIC
        ARGFRAME ISTACK, 0, STACK
        ARGFRAME PSTACK, 0, STACK
        ARGFRAME XSTACK, 13, STACK
        ARGFRAME IOVERLAY, 0, STATIC
        ARGFRAME DOVERLAY, 0, STATIC
        FUNCALL HalI2CReceive, hali2cReceiveByte
        LOCFRAME ISTACK, 0, STACK
        LOCFRAME PSTACK, 0, STACK
        LOCFRAME XSTACK, 13, STACK
        LOCFRAME IOVERLAY, 0, STATIC
        LOCFRAME DOVERLAY, 0, STATIC
        ARGFRAME ISTACK, 0, STACK
        ARGFRAME PSTACK, 0, STACK
        ARGFRAME XSTACK, 13, STACK
        ARGFRAME IOVERLAY, 0, STATIC
        ARGFRAME DOVERLAY, 0, STATIC
        FUNCALL HalI2CReceive, hali2cWrite
        LOCFRAME ISTACK, 0, STACK
        LOCFRAME PSTACK, 0, STACK
        LOCFRAME XSTACK, 13, STACK
        LOCFRAME IOVERLAY, 0, STATIC
        LOCFRAME DOVERLAY, 0, STATIC
        ARGFRAME ISTACK, 0, STACK
        ARGFRAME PSTACK, 0, STACK
        ARGFRAME XSTACK, 13, STACK
        ARGFRAME IOVERLAY, 0, STATIC
        ARGFRAME DOVERLAY, 0, STATIC
        FUNCALL HalI2CReceive, hali2cStop
        LOCFRAME ISTACK, 0, STACK
        LOCFRAME PSTACK, 0, STACK
        LOCFRAME XSTACK, 13, STACK
        LOCFRAME IOVERLAY, 0, STATIC
        LOCFRAME DOVERLAY, 0, STATIC
        ARGFRAME ISTACK, 0, STACK
        ARGFRAME PSTACK, 0, STACK
        ARGFRAME XSTACK, 13, STACK
        ARGFRAME IOVERLAY, 0, STATIC
        ARGFRAME DOVERLAY, 0, STATIC
        MOV     A,#-0xd
        LCALL   ?BANKED_ENTER_XDATA
        CFI DPH0 load(1, XDATA, add(CFA_XSP16, literal(-1)))
        CFI DPL0 load(1, XDATA, add(CFA_XSP16, literal(-2)))
        CFI ?BRET_EXT load(1, XDATA, add(CFA_XSP16, literal(-3)))
        CFI ?RET_HIGH load(1, XDATA, add(CFA_XSP16, literal(-4)))
        CFI ?RET_LOW load(1, XDATA, add(CFA_XSP16, literal(-5)))
        CFI R7 load(1, XDATA, add(CFA_XSP16, literal(-6)))
        CFI V4 load(1, XDATA, add(CFA_XSP16, literal(-7)))
        CFI V3 load(1, XDATA, add(CFA_XSP16, literal(-8)))
        CFI V2 load(1, XDATA, add(CFA_XSP16, literal(-9)))
        CFI V1 load(1, XDATA, add(CFA_XSP16, literal(-10)))
        CFI V0 load(1, XDATA, add(CFA_XSP16, literal(-11)))
        CFI VB load(1, XDATA, add(CFA_XSP16, literal(-12)))
        CFI R6 load(1, XDATA, add(CFA_XSP16, literal(-13)))
        CFI CFA_SP SP+0
        CFI CFA_XSP16 add(XSP16, 13)
        ; Saved register size: 13
        ; Auto size: 0
        MOV     A,R2
        MOV     R6,A
        MOV     A,R3
        MOV     R7,A
        MOV     ?V0 + 0,R4
        MOV     ?V0 + 1,R5
//  216   hali2cReceive(address, buf, len);
        MOV     A,R4
        JNZ     ??HalI2CReceive_0
        MOV     A,R5
??HalI2CReceive_0:
        JZ      ??HalI2CReceive_1
        ; Setup parameters for call to function hali2cSendDeviceAddress
        LCALL   ??hali2cSendDeviceAddress?relay
        MOV     ?V0 + 2,#0x0
        MOV     ?V0 + 3,#0x0
        SJMP    ??CrossCallReturnLabel_6
??HalI2CReceive_2:
        ; Setup parameters for call to function hali2cClock
        LCALL   ?Subroutine2 & 0xFFFF
??CrossCallReturnLabel_0:
        ; Setup parameters for call to function hali2cWrite
        MOV     R1,#0x0
        LCALL   ??hali2cWrite?relay
        LCALL   ?Subroutine6 & 0xFFFF
??CrossCallReturnLabel_6:
        MOV     A,#-0x1
        ADD     A,?V0 + 0
        MOV     R0,A
        MOV     A,#-0x1
        ADDC    A,?V0 + 1
        MOV     R1,A
        CLR     C
        MOV     A,?V0 + 2
        SUBB    A,R0
        MOV     A,?V0 + 3
        SUBB    A,R1
        MOV     R1,#0x0
        JC      ??HalI2CReceive_2
        ; Setup parameters for call to function hali2cClock
        LCALL   ?Subroutine2 & 0xFFFF
??CrossCallReturnLabel_1:
        ; Setup parameters for call to function hali2cWrite
        MOV     R1,#0x1
        LCALL   ??hali2cWrite?relay
        ; Setup parameters for call to function hali2cStop
        LCALL   ??hali2cStop?relay
//  217 
//  218   return 0;
??HalI2CReceive_1:
        MOV     R1,#0x0
        MOV     R7,#0x5
        LJMP    ?BANKED_LEAVE_XDATA
        CFI EndBlock cfiBlock2
        REQUIRE P1DIR
//  219 }

        RSEG BANKED_CODE:CODE:NOROOT(0)
?Subroutine2:
        CFI Block cfiCond3 Using cfiCommon0
        CFI NoFunction
        CFI Conditional ??CrossCallReturnLabel_0
        CFI R6 load(1, XDATA, add(CFA_XSP16, literal(-13)))
        CFI VB load(1, XDATA, add(CFA_XSP16, literal(-12)))
        CFI V0 load(1, XDATA, add(CFA_XSP16, literal(-11)))
        CFI V1 load(1, XDATA, add(CFA_XSP16, literal(-10)))
        CFI V2 load(1, XDATA, add(CFA_XSP16, literal(-9)))
        CFI V3 load(1, XDATA, add(CFA_XSP16, literal(-8)))
        CFI V4 load(1, XDATA, add(CFA_XSP16, literal(-7)))
        CFI R7 load(1, XDATA, add(CFA_XSP16, literal(-6)))
        CFI ?RET_LOW load(1, XDATA, add(CFA_XSP16, literal(-5)))
        CFI ?RET_HIGH load(1, XDATA, add(CFA_XSP16, literal(-4)))
        CFI ?BRET_EXT load(1, XDATA, add(CFA_XSP16, literal(-3)))
        CFI DPL0 load(1, XDATA, add(CFA_XSP16, literal(-2)))
        CFI DPH0 load(1, XDATA, add(CFA_XSP16, literal(-1)))
        CFI CFA_SP SP+0
        CFI CFA_XSP16 add(XSP16, 13)
        CFI Block cfiCond4 Using cfiCommon0
        CFI (cfiCond4) NoFunction
        CFI (cfiCond4) Conditional ??CrossCallReturnLabel_1
        CFI (cfiCond4) R6 load(1, XDATA, add(CFA_XSP16, literal(-13)))
        CFI (cfiCond4) VB load(1, XDATA, add(CFA_XSP16, literal(-12)))
        CFI (cfiCond4) V0 load(1, XDATA, add(CFA_XSP16, literal(-11)))
        CFI (cfiCond4) V1 load(1, XDATA, add(CFA_XSP16, literal(-10)))
        CFI (cfiCond4) V2 load(1, XDATA, add(CFA_XSP16, literal(-9)))
        CFI (cfiCond4) V3 load(1, XDATA, add(CFA_XSP16, literal(-8)))
        CFI (cfiCond4) V4 load(1, XDATA, add(CFA_XSP16, literal(-7)))
        CFI (cfiCond4) R7 load(1, XDATA, add(CFA_XSP16, literal(-6)))
        CFI (cfiCond4) ?RET_LOW load(1, XDATA, add(CFA_XSP16, literal(-5)))
        CFI (cfiCond4) ?RET_HIGH load(1, XDATA, add(CFA_XSP16, literal(-4)))
        CFI (cfiCond4) ?BRET_EXT load(1, XDATA, add(CFA_XSP16, literal(-3)))
        CFI (cfiCond4) DPL0 load(1, XDATA, add(CFA_XSP16, literal(-2)))
        CFI (cfiCond4) DPH0 load(1, XDATA, add(CFA_XSP16, literal(-1)))
        CFI (cfiCond4) CFA_SP SP+0
        CFI (cfiCond4) CFA_XSP16 add(XSP16, 13)
        CFI Block cfiPicker5 Using cfiCommon1
        CFI (cfiPicker5) NoFunction
        CFI (cfiPicker5) Picker
        LCALL   ??hali2cClock?relay
        ANL     0xfe,#0x7f
        ; Setup parameters for call to function hali2cReceiveByte
        ; Setup parameters for call to function hali2cReceiveByte
        LCALL   ??hali2cReceiveByte?relay
        MOV     A,R6
        ADD     A,?V0 + 2
        MOV     DPL,A
        MOV     A,R7
        ADDC    A,?V0 + 3
        MOV     DPH,A
        MOV     A,R1
        MOVX    @DPTR,A
        RET
        CFI EndBlock cfiCond3
        CFI EndBlock cfiCond4
        CFI EndBlock cfiPicker5
//  220 

        RSEG BANKED_CODE:CODE:NOROOT(0)
//  221 int8 HalI2CSend(uint8 address, uint8 *buf, uint16 len)
HalI2CSend:
        CFI Block cfiBlock6 Using cfiCommon0
        CFI Function HalI2CSend
//  222 {
        FUNCALL HalI2CSend, hali2cSendDeviceAddress
        LOCFRAME ISTACK, 0, STACK
        LOCFRAME PSTACK, 0, STACK
        LOCFRAME XSTACK, 14, STACK
        LOCFRAME IOVERLAY, 0, STATIC
        LOCFRAME DOVERLAY, 0, STATIC
        ARGFRAME ISTACK, 0, STACK
        ARGFRAME PSTACK, 0, STACK
        ARGFRAME XSTACK, 14, STACK
        ARGFRAME IOVERLAY, 0, STATIC
        ARGFRAME DOVERLAY, 0, STATIC
        FUNCALL HalI2CSend, hali2cSendByte
        LOCFRAME ISTACK, 0, STACK
        LOCFRAME PSTACK, 0, STACK
        LOCFRAME XSTACK, 14, STACK
        LOCFRAME IOVERLAY, 0, STATIC
        LOCFRAME DOVERLAY, 0, STATIC
        ARGFRAME ISTACK, 0, STACK
        ARGFRAME PSTACK, 0, STACK
        ARGFRAME XSTACK, 14, STACK
        ARGFRAME IOVERLAY, 0, STATIC
        ARGFRAME DOVERLAY, 0, STATIC
        FUNCALL HalI2CSend, hali2cStop
        LOCFRAME ISTACK, 0, STACK
        LOCFRAME PSTACK, 0, STACK
        LOCFRAME XSTACK, 14, STACK
        LOCFRAME IOVERLAY, 0, STATIC
        LOCFRAME DOVERLAY, 0, STATIC
        ARGFRAME ISTACK, 0, STACK
        ARGFRAME PSTACK, 0, STACK
        ARGFRAME XSTACK, 14, STACK
        ARGFRAME IOVERLAY, 0, STATIC
        ARGFRAME DOVERLAY, 0, STATIC
        MOV     A,#-0xe
        LCALL   ?BANKED_ENTER_XDATA
        CFI DPH0 load(1, XDATA, add(CFA_XSP16, literal(-1)))
        CFI DPL0 load(1, XDATA, add(CFA_XSP16, literal(-2)))
        CFI ?BRET_EXT load(1, XDATA, add(CFA_XSP16, literal(-3)))
        CFI ?RET_HIGH load(1, XDATA, add(CFA_XSP16, literal(-4)))
        CFI ?RET_LOW load(1, XDATA, add(CFA_XSP16, literal(-5)))
        CFI R7 load(1, XDATA, add(CFA_XSP16, literal(-6)))
        CFI V5 load(1, XDATA, add(CFA_XSP16, literal(-7)))
        CFI V4 load(1, XDATA, add(CFA_XSP16, literal(-8)))
        CFI V3 load(1, XDATA, add(CFA_XSP16, literal(-9)))
        CFI V2 load(1, XDATA, add(CFA_XSP16, literal(-10)))
        CFI V1 load(1, XDATA, add(CFA_XSP16, literal(-11)))
        CFI V0 load(1, XDATA, add(CFA_XSP16, literal(-12)))
        CFI VB load(1, XDATA, add(CFA_XSP16, literal(-13)))
        CFI R6 load(1, XDATA, add(CFA_XSP16, literal(-14)))
        CFI CFA_SP SP+0
        CFI CFA_XSP16 add(XSP16, 14)
        ; Saved register size: 14
        ; Auto size: 0
        MOV     ?V0 + 0,R2
        MOV     ?V0 + 1,R3
        MOV     A,R4
        MOV     R6,A
        MOV     A,R5
        MOV     R7,A
//  223   // begin the write sequence with the address byte
//  224   hali2cSendDeviceAddress(address);
        ; Setup parameters for call to function hali2cSendDeviceAddress
        LCALL   ??hali2cSendDeviceAddress?relay
//  225   hali2cSend(buf, len, NOSEND_START, SEND_STOP);
        MOV     ?V0 + 5,#0x3
        MOV     A,R6
        JNZ     ??HalI2CSend_0
        MOV     A,R7
??HalI2CSend_0:
        JZ      ??HalI2CSend_1
        MOV     ?V0 + 2,#0x0
        MOV     ?V0 + 3,#0x0
??HalI2CSend_2:
        ; Setup parameters for call to function hali2cSendByte
        MOV     A,?V0 + 0
        ADD     A,?V0 + 2
        MOV     DPL,A
        MOV     A,?V0 + 1
        ADDC    A,?V0 + 3
        MOV     DPH,A
        MOVX    A,@DPTR
        MOV     R1,A
        LCALL   ??hali2cSendByte?relay
        JC      ??HalI2CSend_3
        DEC     ?V0 + 5
        MOV     A,?V0 + 5
        JNZ     ??HalI2CSend_2
??HalI2CSend_3:
        LCALL   ?Subroutine6 & 0xFFFF
??CrossCallReturnLabel_7:
        CLR     C
        MOV     A,?V0 + 2
        SUBB    A,R6
        MOV     A,?V0 + 3
        SUBB    A,R7
        JC      ??HalI2CSend_2
        ; Setup parameters for call to function hali2cStop
        LCALL   ??hali2cStop?relay
//  226 
//  227   return 0;
??HalI2CSend_1:
        MOV     R1,#0x0
        MOV     R7,#0x6
        LJMP    ?BANKED_LEAVE_XDATA
        CFI EndBlock cfiBlock6
//  228 }

        RSEG BANKED_CODE:CODE:NOROOT(0)
?Subroutine6:
        CFI Block cfiCond7 Using cfiCommon0
        CFI NoFunction
        CFI Conditional ??CrossCallReturnLabel_6
        CFI R6 load(1, XDATA, add(CFA_XSP16, literal(-13)))
        CFI VB load(1, XDATA, add(CFA_XSP16, literal(-12)))
        CFI V0 load(1, XDATA, add(CFA_XSP16, literal(-11)))
        CFI V1 load(1, XDATA, add(CFA_XSP16, literal(-10)))
        CFI V2 load(1, XDATA, add(CFA_XSP16, literal(-9)))
        CFI V3 load(1, XDATA, add(CFA_XSP16, literal(-8)))
        CFI V4 load(1, XDATA, add(CFA_XSP16, literal(-7)))
        CFI R7 load(1, XDATA, add(CFA_XSP16, literal(-6)))
        CFI ?RET_LOW load(1, XDATA, add(CFA_XSP16, literal(-5)))
        CFI ?RET_HIGH load(1, XDATA, add(CFA_XSP16, literal(-4)))
        CFI ?BRET_EXT load(1, XDATA, add(CFA_XSP16, literal(-3)))
        CFI DPL0 load(1, XDATA, add(CFA_XSP16, literal(-2)))
        CFI DPH0 load(1, XDATA, add(CFA_XSP16, literal(-1)))
        CFI CFA_SP SP+0
        CFI CFA_XSP16 add(XSP16, 13)
        CFI Block cfiCond8 Using cfiCommon0
        CFI (cfiCond8) NoFunction
        CFI (cfiCond8) Conditional ??CrossCallReturnLabel_7
        CFI (cfiCond8) R6 load(1, XDATA, add(CFA_XSP16, literal(-14)))
        CFI (cfiCond8) VB load(1, XDATA, add(CFA_XSP16, literal(-13)))
        CFI (cfiCond8) V0 load(1, XDATA, add(CFA_XSP16, literal(-12)))
        CFI (cfiCond8) V1 load(1, XDATA, add(CFA_XSP16, literal(-11)))
        CFI (cfiCond8) V2 load(1, XDATA, add(CFA_XSP16, literal(-10)))
        CFI (cfiCond8) V3 load(1, XDATA, add(CFA_XSP16, literal(-9)))
        CFI (cfiCond8) V4 load(1, XDATA, add(CFA_XSP16, literal(-8)))
        CFI (cfiCond8) V5 load(1, XDATA, add(CFA_XSP16, literal(-7)))
        CFI (cfiCond8) R7 load(1, XDATA, add(CFA_XSP16, literal(-6)))
        CFI (cfiCond8) ?RET_LOW load(1, XDATA, add(CFA_XSP16, literal(-5)))
        CFI (cfiCond8) ?RET_HIGH load(1, XDATA, add(CFA_XSP16, literal(-4)))
        CFI (cfiCond8) ?BRET_EXT load(1, XDATA, add(CFA_XSP16, literal(-3)))
        CFI (cfiCond8) DPL0 load(1, XDATA, add(CFA_XSP16, literal(-2)))
        CFI (cfiCond8) DPH0 load(1, XDATA, add(CFA_XSP16, literal(-1)))
        CFI (cfiCond8) CFA_SP SP+0
        CFI (cfiCond8) CFA_XSP16 add(XSP16, 14)
        CFI Block cfiPicker9 Using cfiCommon1
        CFI (cfiPicker9) NoFunction
        CFI (cfiPicker9) Picker
        MOV     A,?V0 + 2
        ADD     A,#0x1
        MOV     ?V0 + 2,A
        MOV     A,?V0 + 3
        ADDC    A,#0x0
        MOV     ?V0 + 3,A
        RET
        CFI EndBlock cfiCond7
        CFI EndBlock cfiCond8
        CFI EndBlock cfiPicker9
//  229 /*********************************************************************
//  230  * @fn      hali2cSend
//  231  * @brief   Sends buffer contents to SM-Bus device
//  232  * @param   buffer - ptr to buffered data to send
//  233  * @param   len - number of bytes in buffer
//  234  * @param   sendStart - whether or not to send start condition.
//  235  * @param   sendStop - whether or not to send stop condition.
//  236  * @return  void
//  237  */
//  238 STATIC void hali2cSend( uint8 *buffer, uint16 len, uint8 sendStart, uint8 sendStop )
//  239 {
//  240   uint16 i;
//  241   uint8 retry = HAL_I2C_RETRY_CNT;
//  242 
//  243   if (!len)  {
//  244     return;
//  245   }
//  246 
//  247   if (sendStart == SEND_START)  {
//  248     hali2cStart();
//  249   }
//  250 
//  251   for ( i = 0; i < len; i++ )
//  252   {
//  253     do {
//  254       if ( hali2cSendByte( buffer[i] ) )  // takes care of ack polling
//  255       {
//  256         break;
//  257       }
//  258     } while ( --retry );
//  259   }
//  260 
//  261   if (sendStop == SEND_STOP) {
//  262     hali2cStop();
//  263   }
//  264 }
//  265 
//  266 /*********************************************************************
//  267  * @fn      hali2cSendByte
//  268  * @brief   Serialize and send one byte to SM-Bus device
//  269  * @param   dByte - data byte to send
//  270  * @return  ACK status - 0=none, 1=received
//  271  */

        RSEG BANKED_CODE:CODE:NOROOT(0)
//  272 STATIC _Bool hali2cSendByte( uint8 dByte )
hali2cSendByte:
        CFI Block cfiBlock10 Using cfiCommon0
        CFI Function hali2cSendByte
//  273 {
        FUNCALL hali2cSendByte, hali2cWrite
        LOCFRAME ISTACK, 0, STACK
        LOCFRAME PSTACK, 0, STACK
        LOCFRAME XSTACK, 9, STACK
        LOCFRAME IOVERLAY, 0, STATIC
        LOCFRAME DOVERLAY, 0, STATIC
        ARGFRAME ISTACK, 0, STACK
        ARGFRAME PSTACK, 0, STACK
        ARGFRAME XSTACK, 9, STACK
        ARGFRAME IOVERLAY, 0, STATIC
        ARGFRAME DOVERLAY, 0, STATIC
        FUNCALL hali2cSendByte, hali2cClock
        LOCFRAME ISTACK, 0, STACK
        LOCFRAME PSTACK, 0, STACK
        LOCFRAME XSTACK, 9, STACK
        LOCFRAME IOVERLAY, 0, STATIC
        LOCFRAME DOVERLAY, 0, STATIC
        ARGFRAME ISTACK, 0, STACK
        ARGFRAME PSTACK, 0, STACK
        ARGFRAME XSTACK, 9, STACK
        ARGFRAME IOVERLAY, 0, STATIC
        ARGFRAME DOVERLAY, 0, STATIC
        FUNCALL hali2cSendByte, hali2cClock
        LOCFRAME ISTACK, 0, STACK
        LOCFRAME PSTACK, 0, STACK
        LOCFRAME XSTACK, 9, STACK
        LOCFRAME IOVERLAY, 0, STATIC
        LOCFRAME DOVERLAY, 0, STATIC
        ARGFRAME ISTACK, 0, STACK
        ARGFRAME PSTACK, 0, STACK
        ARGFRAME XSTACK, 9, STACK
        ARGFRAME IOVERLAY, 0, STATIC
        ARGFRAME DOVERLAY, 0, STATIC
        FUNCALL hali2cSendByte, hali2cWait
        LOCFRAME ISTACK, 0, STACK
        LOCFRAME PSTACK, 0, STACK
        LOCFRAME XSTACK, 9, STACK
        LOCFRAME IOVERLAY, 0, STATIC
        LOCFRAME DOVERLAY, 0, STATIC
        ARGFRAME ISTACK, 0, STACK
        ARGFRAME PSTACK, 0, STACK
        ARGFRAME XSTACK, 9, STACK
        ARGFRAME IOVERLAY, 0, STATIC
        ARGFRAME DOVERLAY, 0, STATIC
        MOV     A,#-0x9
        LCALL   ?BANKED_ENTER_XDATA
        CFI DPH0 load(1, XDATA, add(CFA_XSP16, literal(-1)))
        CFI DPL0 load(1, XDATA, add(CFA_XSP16, literal(-2)))
        CFI ?BRET_EXT load(1, XDATA, add(CFA_XSP16, literal(-3)))
        CFI ?RET_HIGH load(1, XDATA, add(CFA_XSP16, literal(-4)))
        CFI ?RET_LOW load(1, XDATA, add(CFA_XSP16, literal(-5)))
        CFI R7 load(1, XDATA, add(CFA_XSP16, literal(-6)))
        CFI V0 load(1, XDATA, add(CFA_XSP16, literal(-7)))
        CFI VB load(1, XDATA, add(CFA_XSP16, literal(-8)))
        CFI R6 load(1, XDATA, add(CFA_XSP16, literal(-9)))
        CFI CFA_SP SP+0
        CFI CFA_XSP16 add(XSP16, 9)
        ; Saved register size: 9
        ; Auto size: 0
        MOV     A,R1
        MOV     R7,A
//  274   uint8 i;
//  275 
//  276   for ( i = 0; i < 8; i++ )
        MOV     R6,#0x8
//  277   {
//  278     // Send the MSB
//  279     hali2cWrite( dByte & 0x80 );
??hali2cSendByte_0:
        ; Setup parameters for call to function hali2cWrite
        MOV     A,#-0x80
        ANL     A,R7
        MOV     R1,A
        LCALL   ??hali2cWrite?relay
//  280     // Next bit into MSB
//  281     dByte <<= 1;
        MOV     A,R7
        CLR     C
        RLC     A
        MOV     R7,A
//  282   }
        DEC     R6
        MOV     A,R6
        JNZ     ??hali2cSendByte_0
//  283   // need clock low so if the SDA transitions on the next statement the
//  284   // slave doesn't stop. Also give opportunity for slave to set SDA
//  285   hali2cClock( 0 );
        ; Setup parameters for call to function hali2cClock
        LCALL   ?Subroutine3 & 0xFFFF
//  286   OCM_DATA_HIGH(); // set to input to receive ack...
//  287   hali2cClock( 1 );
//  288   hali2cWait(1);
//  289 
//  290   return ( !OCM_SDA );  // Return ACK status
??CrossCallReturnLabel_2:
        MOV     C,0x90.7
        CPL     C
        SJMP    ?Subroutine1
        CFI EndBlock cfiBlock10
        REQUIRE _A_P1
        REQUIRE P1DIR
//  291 }
//  292 
//  293 /*********************************************************************
//  294  * @fn      hali2cWrite
//  295  * @brief   Send one bit to SM-Bus device
//  296  * @param   dBit - data bit to clock onto SM-Bus
//  297  * @return  void
//  298  */

        RSEG BANKED_CODE:CODE:NOROOT(0)
//  299 STATIC void hali2cWrite( bool dBit )
hali2cWrite:
        CFI Block cfiBlock11 Using cfiCommon0
        CFI Function hali2cWrite
//  300 {
        FUNCALL hali2cWrite, hali2cClock
        LOCFRAME ISTACK, 0, STACK
        LOCFRAME PSTACK, 0, STACK
        LOCFRAME XSTACK, 9, STACK
        LOCFRAME IOVERLAY, 0, STATIC
        LOCFRAME DOVERLAY, 0, STATIC
        ARGFRAME ISTACK, 0, STACK
        ARGFRAME PSTACK, 0, STACK
        ARGFRAME XSTACK, 9, STACK
        ARGFRAME IOVERLAY, 0, STATIC
        ARGFRAME DOVERLAY, 0, STATIC
        FUNCALL hali2cWrite, hali2cWait
        LOCFRAME ISTACK, 0, STACK
        LOCFRAME PSTACK, 0, STACK
        LOCFRAME XSTACK, 9, STACK
        LOCFRAME IOVERLAY, 0, STATIC
        LOCFRAME DOVERLAY, 0, STATIC
        ARGFRAME ISTACK, 0, STACK
        ARGFRAME PSTACK, 0, STACK
        ARGFRAME XSTACK, 9, STACK
        ARGFRAME IOVERLAY, 0, STATIC
        ARGFRAME DOVERLAY, 0, STATIC
        FUNCALL hali2cWrite, hali2cClock
        LOCFRAME ISTACK, 0, STACK
        LOCFRAME PSTACK, 0, STACK
        LOCFRAME XSTACK, 9, STACK
        LOCFRAME IOVERLAY, 0, STATIC
        LOCFRAME DOVERLAY, 0, STATIC
        ARGFRAME ISTACK, 0, STACK
        ARGFRAME PSTACK, 0, STACK
        ARGFRAME XSTACK, 9, STACK
        ARGFRAME IOVERLAY, 0, STATIC
        ARGFRAME DOVERLAY, 0, STATIC
        FUNCALL hali2cWrite, hali2cWait
        LOCFRAME ISTACK, 0, STACK
        LOCFRAME PSTACK, 0, STACK
        LOCFRAME XSTACK, 9, STACK
        LOCFRAME IOVERLAY, 0, STATIC
        LOCFRAME DOVERLAY, 0, STATIC
        ARGFRAME ISTACK, 0, STACK
        ARGFRAME PSTACK, 0, STACK
        ARGFRAME XSTACK, 9, STACK
        ARGFRAME IOVERLAY, 0, STATIC
        ARGFRAME DOVERLAY, 0, STATIC
        MOV     A,#-0x9
        LCALL   ?BANKED_ENTER_XDATA
        CFI DPH0 load(1, XDATA, add(CFA_XSP16, literal(-1)))
        CFI DPL0 load(1, XDATA, add(CFA_XSP16, literal(-2)))
        CFI ?BRET_EXT load(1, XDATA, add(CFA_XSP16, literal(-3)))
        CFI ?RET_HIGH load(1, XDATA, add(CFA_XSP16, literal(-4)))
        CFI ?RET_LOW load(1, XDATA, add(CFA_XSP16, literal(-5)))
        CFI R7 load(1, XDATA, add(CFA_XSP16, literal(-6)))
        CFI V0 load(1, XDATA, add(CFA_XSP16, literal(-7)))
        CFI VB load(1, XDATA, add(CFA_XSP16, literal(-8)))
        CFI R6 load(1, XDATA, add(CFA_XSP16, literal(-9)))
        CFI CFA_SP SP+0
        CFI CFA_XSP16 add(XSP16, 9)
        ; Saved register size: 9
        ; Auto size: 0
        MOV     A,R1
        MOV     R6,A
//  301   hali2cClock( 0 );
        ; Setup parameters for call to function hali2cClock
        LCALL   ?Subroutine4 & 0xFFFF
//  302   hali2cWait(1);
//  303   if ( dBit )
??CrossCallReturnLabel_10:
        MOV     A,R6
        JZ      ??hali2cWrite_0
//  304   {
//  305     OCM_DATA_HIGH();
        ANL     0xfe,#0x7f
        SJMP    ??hali2cWrite_1
//  306   }
//  307   else
//  308   {
//  309     OCM_DATA_LOW();
??hali2cWrite_0:
        ORL     0xfe,#0x80
        CLR     0x90.7
//  310   }
//  311 
//  312   hali2cClock(1);    
??hali2cWrite_1:
        ; Setup parameters for call to function hali2cClock
        MOV     R1,#0x1
        LCALL   ??Subroutine9_0 & 0xFFFF
//  313   hali2cWait(1);
//  314 }
??CrossCallReturnLabel_11:
        SJMP    ?Subroutine1
        CFI EndBlock cfiBlock11
        REQUIRE _A_P1
        REQUIRE P1DIR
//  315 
//  316 /*********************************************************************
//  317  * @fn      hali2cClock
//  318  * @brief   Clocks the SM-Bus. If a negative edge is going out, the
//  319  *          I/O pin is set as an output and driven low. If a positive
//  320  *          edge is going out, the pin is set as an input and the pin
//  321  *          pull-up drives the line high. This way, the slave device
//  322  *          can hold the node low if longer setup time is desired.
//  323  * @param   dir - clock line direction
//  324  * @return  void
//  325  */

        RSEG BANKED_CODE:CODE:NOROOT(0)
//  326 STATIC void hali2cClock( bool dir )
hali2cClock:
        CFI Block cfiBlock12 Using cfiCommon0
        CFI Function hali2cClock
//  327 {
        FUNCALL hali2cClock, hali2cWait
        LOCFRAME ISTACK, 1, STACK
        LOCFRAME PSTACK, 0, STACK
        LOCFRAME XSTACK, 0, STACK
        LOCFRAME IOVERLAY, 0, STATIC
        LOCFRAME DOVERLAY, 0, STATIC
        ARGFRAME ISTACK, 1, STACK
        ARGFRAME PSTACK, 0, STACK
        ARGFRAME XSTACK, 0, STACK
        ARGFRAME IOVERLAY, 0, STATIC
        ARGFRAME DOVERLAY, 0, STATIC
        FUNCALL hali2cClock, hali2cWait
        LOCFRAME ISTACK, 1, STACK
        LOCFRAME PSTACK, 0, STACK
        LOCFRAME XSTACK, 0, STACK
        LOCFRAME IOVERLAY, 0, STATIC
        LOCFRAME DOVERLAY, 0, STATIC
        ARGFRAME ISTACK, 1, STACK
        ARGFRAME PSTACK, 0, STACK
        ARGFRAME XSTACK, 0, STACK
        ARGFRAME IOVERLAY, 0, STATIC
        ARGFRAME DOVERLAY, 0, STATIC
        MOV     A,R6
        CFI R6 A
        PUSH    A
        CFI R6 Frame(CFA_SP, 4)
        CFI CFA_SP SP+-4
        ; Saved register size: 1
        ; Auto size: 0
        MOV     A,R1
//  328   if ( dir )
        JZ      ??hali2cClock_0
//  329   {
//  330     IO_DIR_PORT_PIN( OCM_CLK_PORT, OCM_CLK_PIN, IO_IN );
        ANL     0xfe,#0xbf
//  331     while(!OCM_SCL) /* Wait until clock is high */
??hali2cClock_1:
        MOV     C,0x90.6
        JC      ??hali2cClock_2
//  332         hali2cWait(1);
        ; Setup parameters for call to function hali2cWait
        MOV     R1,#0x1
        LCALL   hali2cWait & 0xFFFF
        SJMP    ??hali2cClock_1
//  333   }
//  334   else
//  335   {
//  336     IO_DIR_PORT_PIN( OCM_CLK_PORT, OCM_CLK_PIN, IO_OUT );
??hali2cClock_0:
        ORL     0xfe,#0x40
//  337     OCM_SCL = 0;
        CLR     0x90.6
//  338   }
//  339   hali2cWait(1);
??hali2cClock_2:
        ; Setup parameters for call to function hali2cWait
        MOV     R1,#0x1
        LCALL   hali2cWait & 0xFFFF
//  340 }
        POP     A
        CFI R6 A
        CFI CFA_SP SP+-3
        MOV     R6,A
        CFI R6 SameValue
        LJMP    ?BRET
        CFI EndBlock cfiBlock12
        REQUIRE _A_P1
        REQUIRE P1DIR
//  341 
//  342 /*********************************************************************
//  343  * @fn      hali2cStart
//  344  * @brief   Initiates SM-Bus communication. Makes sure that both the
//  345  *          clock and data lines of the SM-Bus are high. Then the data
//  346  *          line is set high and clock line is set low to start I/O.
//  347  * @param   void
//  348  * @return  void
//  349  */

        RSEG BANKED_CODE:CODE:NOROOT(0)
//  350 STATIC void hali2cStart( void )
hali2cStart:
        CFI Block cfiBlock13 Using cfiCommon0
        CFI Function hali2cStart
//  351 {
        FUNCALL hali2cStart, hali2cClock
        LOCFRAME ISTACK, 0, STACK
        LOCFRAME PSTACK, 0, STACK
        LOCFRAME XSTACK, 9, STACK
        LOCFRAME IOVERLAY, 0, STATIC
        LOCFRAME DOVERLAY, 0, STATIC
        ARGFRAME ISTACK, 0, STACK
        ARGFRAME PSTACK, 0, STACK
        ARGFRAME XSTACK, 9, STACK
        ARGFRAME IOVERLAY, 0, STATIC
        ARGFRAME DOVERLAY, 0, STATIC
        FUNCALL hali2cStart, hali2cWait
        LOCFRAME ISTACK, 0, STACK
        LOCFRAME PSTACK, 0, STACK
        LOCFRAME XSTACK, 9, STACK
        LOCFRAME IOVERLAY, 0, STATIC
        LOCFRAME DOVERLAY, 0, STATIC
        ARGFRAME ISTACK, 0, STACK
        ARGFRAME PSTACK, 0, STACK
        ARGFRAME XSTACK, 9, STACK
        ARGFRAME IOVERLAY, 0, STATIC
        ARGFRAME DOVERLAY, 0, STATIC
        FUNCALL hali2cStart, hali2cClock
        LOCFRAME ISTACK, 0, STACK
        LOCFRAME PSTACK, 0, STACK
        LOCFRAME XSTACK, 9, STACK
        LOCFRAME IOVERLAY, 0, STATIC
        LOCFRAME DOVERLAY, 0, STATIC
        ARGFRAME ISTACK, 0, STACK
        ARGFRAME PSTACK, 0, STACK
        ARGFRAME XSTACK, 9, STACK
        ARGFRAME IOVERLAY, 0, STATIC
        ARGFRAME DOVERLAY, 0, STATIC
        FUNCALL hali2cStart, hali2cClock
        LOCFRAME ISTACK, 0, STACK
        LOCFRAME PSTACK, 0, STACK
        LOCFRAME XSTACK, 9, STACK
        LOCFRAME IOVERLAY, 0, STATIC
        LOCFRAME DOVERLAY, 0, STATIC
        ARGFRAME ISTACK, 0, STACK
        ARGFRAME PSTACK, 0, STACK
        ARGFRAME XSTACK, 9, STACK
        ARGFRAME IOVERLAY, 0, STATIC
        ARGFRAME DOVERLAY, 0, STATIC
        FUNCALL hali2cStart, hali2cWait
        LOCFRAME ISTACK, 0, STACK
        LOCFRAME PSTACK, 0, STACK
        LOCFRAME XSTACK, 9, STACK
        LOCFRAME IOVERLAY, 0, STATIC
        LOCFRAME DOVERLAY, 0, STATIC
        ARGFRAME ISTACK, 0, STACK
        ARGFRAME PSTACK, 0, STACK
        ARGFRAME XSTACK, 9, STACK
        ARGFRAME IOVERLAY, 0, STATIC
        ARGFRAME DOVERLAY, 0, STATIC
        FUNCALL hali2cStart, hali2cWait
        LOCFRAME ISTACK, 0, STACK
        LOCFRAME PSTACK, 0, STACK
        LOCFRAME XSTACK, 9, STACK
        LOCFRAME IOVERLAY, 0, STATIC
        LOCFRAME DOVERLAY, 0, STATIC
        ARGFRAME ISTACK, 0, STACK
        ARGFRAME PSTACK, 0, STACK
        ARGFRAME XSTACK, 9, STACK
        ARGFRAME IOVERLAY, 0, STATIC
        ARGFRAME DOVERLAY, 0, STATIC
        FUNCALL hali2cStart, hali2cClock
        LOCFRAME ISTACK, 0, STACK
        LOCFRAME PSTACK, 0, STACK
        LOCFRAME XSTACK, 9, STACK
        LOCFRAME IOVERLAY, 0, STATIC
        LOCFRAME DOVERLAY, 0, STATIC
        ARGFRAME ISTACK, 0, STACK
        ARGFRAME PSTACK, 0, STACK
        ARGFRAME XSTACK, 9, STACK
        ARGFRAME IOVERLAY, 0, STATIC
        ARGFRAME DOVERLAY, 0, STATIC
        MOV     A,#-0x9
        LCALL   ?BANKED_ENTER_XDATA
        CFI DPH0 load(1, XDATA, add(CFA_XSP16, literal(-1)))
        CFI DPL0 load(1, XDATA, add(CFA_XSP16, literal(-2)))
        CFI ?BRET_EXT load(1, XDATA, add(CFA_XSP16, literal(-3)))
        CFI ?RET_HIGH load(1, XDATA, add(CFA_XSP16, literal(-4)))
        CFI ?RET_LOW load(1, XDATA, add(CFA_XSP16, literal(-5)))
        CFI R7 load(1, XDATA, add(CFA_XSP16, literal(-6)))
        CFI V0 load(1, XDATA, add(CFA_XSP16, literal(-7)))
        CFI VB load(1, XDATA, add(CFA_XSP16, literal(-8)))
        CFI R6 load(1, XDATA, add(CFA_XSP16, literal(-9)))
        CFI CFA_SP SP+0
        CFI CFA_XSP16 add(XSP16, 9)
        ; Saved register size: 9
        ; Auto size: 0
//  352   uint8 retry = HAL_I2C_RETRY_CNT;
        MOV     R6,#0x3
//  353 
//  354   // set SCL to input but with pull-up. if slave is pulling down it will stay down.
//  355   hali2cClock(1);
        ; Setup parameters for call to function hali2cClock
        MOV     R1,#0x1
        LCALL   ??hali2cClock?relay
//  356 
//  357   do {
//  358     // wait for slave to release clock line...
//  359     if (OCM_SCL)  // wait until the line is high...
??hali2cStart_0:
        MOV     C,0x90.6
        JC      ??hali2cStart_1
//  360     {
//  361       break;
//  362     }
//  363     hali2cWait(1);
        ; Setup parameters for call to function hali2cWait
        MOV     R1,#0x1
        LCALL   hali2cWait & 0xFFFF
//  364   } while ( --retry );
        DEC     R6
        MOV     A,R6
        JNZ     ??hali2cStart_0
//  365 
//  366   // SCL low to set SDA high so the transition will be correct.
//  367   hali2cClock(0);
??hali2cStart_1:
        ; Setup parameters for call to function hali2cClock
        LCALL   ?Subroutine3 & 0xFFFF
//  368   OCM_DATA_HIGH();  // SDA high
//  369   hali2cClock(1);      // set up for transition
//  370   hali2cWait(1);
//  371   OCM_DATA_LOW();   // start
??CrossCallReturnLabel_3:
        LCALL   ?Subroutine5 & 0xFFFF
//  372 
//  373   hali2cWait(1);
//  374   hali2cClock( 0 );
??CrossCallReturnLabel_4:
        ; Setup parameters for call to function hali2cClock
        MOV     R1,#0x0
        LCALL   ??hali2cClock?relay
        CFI EndBlock cfiBlock13
//  375 }
        REQUIRE ?Subroutine1
        REQUIRE _A_P1
        REQUIRE P1DIR
        ; // Fall through to label ?Subroutine1

        RSEG BANKED_CODE:CODE:NOROOT(0)
?Subroutine1:
        CFI Block cfiBlock14 Using cfiCommon0
        CFI NoFunction
        CFI CFA_SP SP+0
        CFI CFA_XSP16 add(XSP16, 9)
        CFI VB load(1, XDATA, add(CFA_XSP16, literal(-8)))
        CFI DPL0 load(1, XDATA, add(CFA_XSP16, literal(-2)))
        CFI DPH0 load(1, XDATA, add(CFA_XSP16, literal(-1)))
        CFI R6 load(1, XDATA, add(CFA_XSP16, literal(-9)))
        CFI R7 load(1, XDATA, add(CFA_XSP16, literal(-6)))
        CFI V0 load(1, XDATA, add(CFA_XSP16, literal(-7)))
        CFI ?BRET_EXT load(1, XDATA, add(CFA_XSP16, literal(-3)))
        CFI ?RET_HIGH load(1, XDATA, add(CFA_XSP16, literal(-4)))
        CFI ?RET_LOW load(1, XDATA, add(CFA_XSP16, literal(-5)))
        MOV     R7,#0x1
        LJMP    ?BANKED_LEAVE_XDATA
        CFI EndBlock cfiBlock14

        RSEG BANKED_CODE:CODE:NOROOT(0)
?Subroutine3:
        CFI Block cfiCond15 Using cfiCommon0
        CFI NoFunction
        CFI Conditional ??CrossCallReturnLabel_2
        CFI R6 load(1, XDATA, add(CFA_XSP16, literal(-9)))
        CFI VB load(1, XDATA, add(CFA_XSP16, literal(-8)))
        CFI V0 load(1, XDATA, add(CFA_XSP16, literal(-7)))
        CFI R7 load(1, XDATA, add(CFA_XSP16, literal(-6)))
        CFI ?RET_LOW load(1, XDATA, add(CFA_XSP16, literal(-5)))
        CFI ?RET_HIGH load(1, XDATA, add(CFA_XSP16, literal(-4)))
        CFI ?BRET_EXT load(1, XDATA, add(CFA_XSP16, literal(-3)))
        CFI DPL0 load(1, XDATA, add(CFA_XSP16, literal(-2)))
        CFI DPH0 load(1, XDATA, add(CFA_XSP16, literal(-1)))
        CFI CFA_SP SP+0
        CFI CFA_XSP16 add(XSP16, 9)
        CFI Block cfiCond16 Using cfiCommon0
        CFI (cfiCond16) NoFunction
        CFI (cfiCond16) Conditional ??CrossCallReturnLabel_3
        CFI (cfiCond16) R6 load(1, XDATA, add(CFA_XSP16, literal(-9)))
        CFI (cfiCond16) VB load(1, XDATA, add(CFA_XSP16, literal(-8)))
        CFI (cfiCond16) V0 load(1, XDATA, add(CFA_XSP16, literal(-7)))
        CFI (cfiCond16) R7 load(1, XDATA, add(CFA_XSP16, literal(-6)))
        CFI (cfiCond16) ?RET_LOW load(1, XDATA, add(CFA_XSP16, literal(-5)))
        CFI (cfiCond16) ?RET_HIGH load(1, XDATA, add(CFA_XSP16, literal(-4)))
        CFI (cfiCond16) ?BRET_EXT load(1, XDATA, add(CFA_XSP16, literal(-3)))
        CFI (cfiCond16) DPL0 load(1, XDATA, add(CFA_XSP16, literal(-2)))
        CFI (cfiCond16) DPH0 load(1, XDATA, add(CFA_XSP16, literal(-1)))
        CFI (cfiCond16) CFA_SP SP+0
        CFI (cfiCond16) CFA_XSP16 add(XSP16, 9)
        CFI Block cfiPicker17 Using cfiCommon1
        CFI (cfiPicker17) NoFunction
        CFI (cfiPicker17) Picker
        MOV     R1,#0x0
        LCALL   ?Subroutine8 & 0xFFFF
??CrossCallReturnLabel_8:
        LCALL   ?Subroutine7 & 0xFFFF
??CrossCallReturnLabel_14:
        RET
        CFI EndBlock cfiCond15
        CFI EndBlock cfiCond16
        CFI EndBlock cfiPicker17
//  376 
//  377 /*********************************************************************
//  378  * @fn      hali2cStop
//  379  * @brief   Terminates SM-Bus communication. Waits unitl the data line
//  380  *          is low and the clock line is high. Then sets the data line
//  381  *          high, keeping the clock line high to stop I/O.
//  382  * @param   void
//  383  * @return  void
//  384  */

        RSEG BANKED_CODE:CODE:NOROOT(0)
//  385 STATIC void hali2cStop( void )
hali2cStop:
        CFI Block cfiBlock18 Using cfiCommon0
        CFI Function hali2cStop
//  386 {
        FUNCALL hali2cStop, hali2cClock
        LOCFRAME ISTACK, 2, STACK
        LOCFRAME PSTACK, 0, STACK
        LOCFRAME XSTACK, 0, STACK
        LOCFRAME IOVERLAY, 0, STATIC
        LOCFRAME DOVERLAY, 0, STATIC
        ARGFRAME ISTACK, 2, STACK
        ARGFRAME PSTACK, 0, STACK
        ARGFRAME XSTACK, 0, STACK
        ARGFRAME IOVERLAY, 0, STATIC
        ARGFRAME DOVERLAY, 0, STATIC
        FUNCALL hali2cStop, hali2cWait
        LOCFRAME ISTACK, 2, STACK
        LOCFRAME PSTACK, 0, STACK
        LOCFRAME XSTACK, 0, STACK
        LOCFRAME IOVERLAY, 0, STATIC
        LOCFRAME DOVERLAY, 0, STATIC
        ARGFRAME ISTACK, 2, STACK
        ARGFRAME PSTACK, 0, STACK
        ARGFRAME XSTACK, 0, STACK
        ARGFRAME IOVERLAY, 0, STATIC
        ARGFRAME DOVERLAY, 0, STATIC
        FUNCALL hali2cStop, hali2cClock
        LOCFRAME ISTACK, 2, STACK
        LOCFRAME PSTACK, 0, STACK
        LOCFRAME XSTACK, 0, STACK
        LOCFRAME IOVERLAY, 0, STATIC
        LOCFRAME DOVERLAY, 0, STATIC
        ARGFRAME ISTACK, 2, STACK
        ARGFRAME PSTACK, 0, STACK
        ARGFRAME XSTACK, 0, STACK
        ARGFRAME IOVERLAY, 0, STATIC
        ARGFRAME DOVERLAY, 0, STATIC
        FUNCALL hali2cStop, hali2cWait
        LOCFRAME ISTACK, 2, STACK
        LOCFRAME PSTACK, 0, STACK
        LOCFRAME XSTACK, 0, STACK
        LOCFRAME IOVERLAY, 0, STATIC
        LOCFRAME DOVERLAY, 0, STATIC
        ARGFRAME ISTACK, 2, STACK
        ARGFRAME PSTACK, 0, STACK
        ARGFRAME XSTACK, 0, STACK
        ARGFRAME IOVERLAY, 0, STATIC
        ARGFRAME DOVERLAY, 0, STATIC
        PUSH    DPL
        CFI DPL0 Frame(CFA_SP, 4)
        CFI CFA_SP SP+-4
        PUSH    DPH
        CFI DPH0 Frame(CFA_SP, 5)
        CFI CFA_SP SP+-5
        ; Saved register size: 2
        ; Auto size: 0
//  387   // Wait for clock high and data low
//  388   hali2cClock(0);
        ; Setup parameters for call to function hali2cClock
        MOV     R1,#0x0
        LCALL   ??hali2cClock?relay
//  389   OCM_DATA_LOW();  // force low with SCL low
        LCALL   ?Subroutine5 & 0xFFFF
//  390   hali2cWait(1);
//  391 
//  392   hali2cClock( 1 );
??CrossCallReturnLabel_5:
        ; Setup parameters for call to function hali2cClock
        MOV     R1,#0x1
        LCALL   ?Subroutine8 & 0xFFFF
//  393   OCM_DATA_HIGH(); // stop condition
//  394   hali2cWait(1);
??CrossCallReturnLabel_9:
        LCALL   hali2cWait & 0xFFFF
//  395 
//  396 }
        LJMP    ?Subroutine0 & 0xFFFF
        CFI EndBlock cfiBlock18
        REQUIRE _A_P1
        REQUIRE P1DIR

        RSEG BANKED_CODE:CODE:NOROOT(0)
?Subroutine8:
        CFI Block cfiCond19 Using cfiCommon0
        CFI NoFunction
        CFI Conditional ??CrossCallReturnLabel_8, ??CrossCallReturnLabel_2
        CFI R6 load(1, XDATA, add(CFA_XSP16, literal(-9)))
        CFI VB load(1, XDATA, add(CFA_XSP16, literal(-8)))
        CFI V0 load(1, XDATA, add(CFA_XSP16, literal(-7)))
        CFI R7 load(1, XDATA, add(CFA_XSP16, literal(-6)))
        CFI ?RET_LOW load(1, XDATA, add(CFA_XSP16, literal(-5)))
        CFI ?RET_HIGH load(1, XDATA, add(CFA_XSP16, literal(-4)))
        CFI ?BRET_EXT load(1, XDATA, add(CFA_XSP16, literal(-3)))
        CFI DPL0 load(1, XDATA, add(CFA_XSP16, literal(-2)))
        CFI DPH0 load(1, XDATA, add(CFA_XSP16, literal(-1)))
        CFI CFA_SP SP+0
        CFI CFA_XSP16 add(XSP16, 9)
        CFI Block cfiCond20 Using cfiCommon0
        CFI (cfiCond20) NoFunction
        CFI (cfiCond20) Conditional ??CrossCallReturnLabel_8, ??CrossCallReturnLabel_3
        CFI (cfiCond20) R6 load(1, XDATA, add(CFA_XSP16, literal(-9)))
        CFI (cfiCond20) VB load(1, XDATA, add(CFA_XSP16, literal(-8)))
        CFI (cfiCond20) V0 load(1, XDATA, add(CFA_XSP16, literal(-7)))
        CFI (cfiCond20) R7 load(1, XDATA, add(CFA_XSP16, literal(-6)))
        CFI (cfiCond20) ?RET_LOW load(1, XDATA, add(CFA_XSP16, literal(-5)))
        CFI (cfiCond20) ?RET_HIGH load(1, XDATA, add(CFA_XSP16, literal(-4)))
        CFI (cfiCond20) ?BRET_EXT load(1, XDATA, add(CFA_XSP16, literal(-3)))
        CFI (cfiCond20) DPL0 load(1, XDATA, add(CFA_XSP16, literal(-2)))
        CFI (cfiCond20) DPH0 load(1, XDATA, add(CFA_XSP16, literal(-1)))
        CFI (cfiCond20) CFA_SP SP+0
        CFI (cfiCond20) CFA_XSP16 add(XSP16, 9)
        CFI Block cfiCond21 Using cfiCommon0
        CFI (cfiCond21) NoFunction
        CFI (cfiCond21) Conditional ??CrossCallReturnLabel_9
        CFI (cfiCond21) DPL0 Frame(CFA_SP, 4)
        CFI (cfiCond21) DPH0 Frame(CFA_SP, 5)
        CFI (cfiCond21) CFA_SP SP+-5
        CFI Block cfiPicker22 Using cfiCommon1
        CFI (cfiPicker22) NoFunction
        CFI (cfiPicker22) Picker
        LCALL   ??hali2cClock?relay
        ANL     0xfe,#0x7f
        ; Setup parameters for call to function hali2cClock
        ; Setup parameters for call to function hali2cClock
        ; Setup parameters for call to function hali2cWait
        MOV     R1,#0x1
        RET
        CFI EndBlock cfiCond19
        CFI EndBlock cfiCond20
        CFI EndBlock cfiCond21
        CFI EndBlock cfiPicker22

        RSEG BANKED_CODE:CODE:NOROOT(0)
?Subroutine5:
        CFI Block cfiCond23 Using cfiCommon0
        CFI NoFunction
        CFI Conditional ??CrossCallReturnLabel_4
        CFI R6 load(1, XDATA, add(CFA_XSP16, literal(-9)))
        CFI VB load(1, XDATA, add(CFA_XSP16, literal(-8)))
        CFI V0 load(1, XDATA, add(CFA_XSP16, literal(-7)))
        CFI R7 load(1, XDATA, add(CFA_XSP16, literal(-6)))
        CFI ?RET_LOW load(1, XDATA, add(CFA_XSP16, literal(-5)))
        CFI ?RET_HIGH load(1, XDATA, add(CFA_XSP16, literal(-4)))
        CFI ?BRET_EXT load(1, XDATA, add(CFA_XSP16, literal(-3)))
        CFI DPL0 load(1, XDATA, add(CFA_XSP16, literal(-2)))
        CFI DPH0 load(1, XDATA, add(CFA_XSP16, literal(-1)))
        CFI CFA_SP SP+0
        CFI CFA_XSP16 add(XSP16, 9)
        CFI Block cfiCond24 Using cfiCommon0
        CFI (cfiCond24) NoFunction
        CFI (cfiCond24) Conditional ??CrossCallReturnLabel_5
        CFI (cfiCond24) DPL0 Frame(CFA_SP, 4)
        CFI (cfiCond24) DPH0 Frame(CFA_SP, 5)
        CFI (cfiCond24) CFA_SP SP+-5
        CFI Block cfiPicker25 Using cfiCommon1
        CFI (cfiPicker25) NoFunction
        CFI (cfiPicker25) Picker
        ORL     0xfe,#0x80
        CLR     0x90.7
        ; Setup parameters for call to function hali2cWait
        ; Setup parameters for call to function hali2cWait
        MOV     R1,#0x1
        LCALL   hali2cWait & 0xFFFF
        RET
        CFI EndBlock cfiCond23
        CFI EndBlock cfiCond24
        CFI EndBlock cfiPicker25
//  397 
//  398 /*********************************************************************
//  399  * @fn      hali2cWait
//  400  * @brief   Wastes a an amount of time.
//  401  * @param   count: down count in busy-wait
//  402  * @return  void
//  403  */

        RSEG NEAR_CODE:CODE:NOROOT(0)
//  404 STATIC __near_func void hali2cWait( uint8 count )
hali2cWait:
        CFI Block cfiBlock26 Using cfiCommon2
        CFI Function hali2cWait
//  405 {
        ; Saved register size: 0
        ; Auto size: 0
//  406   while ( count-- );
??hali2cWait_0:
        MOV     A,R1
        DEC     R1
        JNZ     ??hali2cWait_0
//  407 }
        RET
        CFI EndBlock cfiBlock26
//  408 
//  409 /*********************************************************************
//  410  * @fn      hali2cReceiveByte
//  411  * @brief   Read the 8 data bits.
//  412  * @param   void
//  413  * @return  character read
//  414  */

        RSEG BANKED_CODE:CODE:NOROOT(0)
//  415 STATIC uint8 hali2cReceiveByte()
hali2cReceiveByte:
        CFI Block cfiBlock27 Using cfiCommon0
        CFI Function hali2cReceiveByte
//  416 {
        FUNCALL hali2cReceiveByte, hali2cClock
        LOCFRAME ISTACK, 0, STACK
        LOCFRAME PSTACK, 0, STACK
        LOCFRAME XSTACK, 12, STACK
        LOCFRAME IOVERLAY, 0, STATIC
        LOCFRAME DOVERLAY, 0, STATIC
        ARGFRAME ISTACK, 0, STACK
        ARGFRAME PSTACK, 0, STACK
        ARGFRAME XSTACK, 12, STACK
        ARGFRAME IOVERLAY, 0, STATIC
        ARGFRAME DOVERLAY, 0, STATIC
        FUNCALL hali2cReceiveByte, hali2cWait
        LOCFRAME ISTACK, 0, STACK
        LOCFRAME PSTACK, 0, STACK
        LOCFRAME XSTACK, 12, STACK
        LOCFRAME IOVERLAY, 0, STATIC
        LOCFRAME DOVERLAY, 0, STATIC
        ARGFRAME ISTACK, 0, STACK
        ARGFRAME PSTACK, 0, STACK
        ARGFRAME XSTACK, 12, STACK
        ARGFRAME IOVERLAY, 0, STATIC
        ARGFRAME DOVERLAY, 0, STATIC
        FUNCALL hali2cReceiveByte, hali2cClock
        LOCFRAME ISTACK, 0, STACK
        LOCFRAME PSTACK, 0, STACK
        LOCFRAME XSTACK, 12, STACK
        LOCFRAME IOVERLAY, 0, STATIC
        LOCFRAME DOVERLAY, 0, STATIC
        ARGFRAME ISTACK, 0, STACK
        ARGFRAME PSTACK, 0, STACK
        ARGFRAME XSTACK, 12, STACK
        ARGFRAME IOVERLAY, 0, STATIC
        ARGFRAME DOVERLAY, 0, STATIC
        FUNCALL hali2cReceiveByte, hali2cWait
        LOCFRAME ISTACK, 0, STACK
        LOCFRAME PSTACK, 0, STACK
        LOCFRAME XSTACK, 12, STACK
        LOCFRAME IOVERLAY, 0, STATIC
        LOCFRAME DOVERLAY, 0, STATIC
        ARGFRAME ISTACK, 0, STACK
        ARGFRAME PSTACK, 0, STACK
        ARGFRAME XSTACK, 12, STACK
        ARGFRAME IOVERLAY, 0, STATIC
        ARGFRAME DOVERLAY, 0, STATIC
        MOV     A,#-0xc
        LCALL   ?BANKED_ENTER_XDATA
        CFI DPH0 load(1, XDATA, add(CFA_XSP16, literal(-1)))
        CFI DPL0 load(1, XDATA, add(CFA_XSP16, literal(-2)))
        CFI ?BRET_EXT load(1, XDATA, add(CFA_XSP16, literal(-3)))
        CFI ?RET_HIGH load(1, XDATA, add(CFA_XSP16, literal(-4)))
        CFI ?RET_LOW load(1, XDATA, add(CFA_XSP16, literal(-5)))
        CFI R7 load(1, XDATA, add(CFA_XSP16, literal(-6)))
        CFI V3 load(1, XDATA, add(CFA_XSP16, literal(-7)))
        CFI V2 load(1, XDATA, add(CFA_XSP16, literal(-8)))
        CFI V1 load(1, XDATA, add(CFA_XSP16, literal(-9)))
        CFI V0 load(1, XDATA, add(CFA_XSP16, literal(-10)))
        CFI VB load(1, XDATA, add(CFA_XSP16, literal(-11)))
        CFI R6 load(1, XDATA, add(CFA_XSP16, literal(-12)))
        CFI CFA_SP SP+0
        CFI CFA_XSP16 add(XSP16, 12)
        ; Saved register size: 12
        ; Auto size: 0
//  417   int8 i, rval = 0;
        MOV     ?V0 + 0,#0x0
//  418 
//  419   for (i=7; i>=0; --i)  {
        MOV     R6,#0x7
//  420     if (hali2cRead())  {
??hali2cReceiveByte_0:
        ; Setup parameters for call to function hali2cClock
        LCALL   ?Subroutine4 & 0xFFFF
??CrossCallReturnLabel_13:
        ; Setup parameters for call to function hali2cClock
        MOV     R1,#0x1
        LCALL   ??Subroutine9_0 & 0xFFFF
??CrossCallReturnLabel_12:
        MOV     C,0x90.7
        JNC     ??hali2cReceiveByte_1
//  421       rval |= 1<<i;
        MOV     ?V0 + 2,#0x1
        MOV     ?V0 + 3,#0x0
        MOV     A,R6
        MOV     R0,#?V0 + 2
        LCALL   ?S_SHL
        MOV     A,?V0 + 2
        ORL     ?V0 + 0,A
//  422     }
//  423   }
??hali2cReceiveByte_1:
        MOV     A,#-0x1
        ADD     A,R6
        DEC     R6
        CLR     C
        SUBB    A,#0x0
        MOV     C,0xD0 /* PSW */.2
        XRL     A,PSW
        RLC     A
        JNC     ??hali2cReceiveByte_0
//  424 
//  425   return rval;
        MOV     R1,?V0 + 0
        MOV     R7,#0x4
        LJMP    ?BANKED_LEAVE_XDATA
        CFI EndBlock cfiBlock27
        REQUIRE _A_P1
//  426 }

        RSEG BANKED_CODE:CODE:NOROOT(0)
?Subroutine4:
        CFI Block cfiCond28 Using cfiCommon0
        CFI NoFunction
        CFI Conditional ??CrossCallReturnLabel_10
        CFI R6 load(1, XDATA, add(CFA_XSP16, literal(-9)))
        CFI VB load(1, XDATA, add(CFA_XSP16, literal(-8)))
        CFI V0 load(1, XDATA, add(CFA_XSP16, literal(-7)))
        CFI R7 load(1, XDATA, add(CFA_XSP16, literal(-6)))
        CFI ?RET_LOW load(1, XDATA, add(CFA_XSP16, literal(-5)))
        CFI ?RET_HIGH load(1, XDATA, add(CFA_XSP16, literal(-4)))
        CFI ?BRET_EXT load(1, XDATA, add(CFA_XSP16, literal(-3)))
        CFI DPL0 load(1, XDATA, add(CFA_XSP16, literal(-2)))
        CFI DPH0 load(1, XDATA, add(CFA_XSP16, literal(-1)))
        CFI CFA_SP SP+0
        CFI CFA_XSP16 add(XSP16, 9)
        CFI Block cfiCond29 Using cfiCommon0
        CFI (cfiCond29) NoFunction
        CFI (cfiCond29) Conditional ??CrossCallReturnLabel_13
        CFI (cfiCond29) R6 load(1, XDATA, add(CFA_XSP16, literal(-12)))
        CFI (cfiCond29) VB load(1, XDATA, add(CFA_XSP16, literal(-11)))
        CFI (cfiCond29) V0 load(1, XDATA, add(CFA_XSP16, literal(-10)))
        CFI (cfiCond29) V1 load(1, XDATA, add(CFA_XSP16, literal(-9)))
        CFI (cfiCond29) V2 load(1, XDATA, add(CFA_XSP16, literal(-8)))
        CFI (cfiCond29) V3 load(1, XDATA, add(CFA_XSP16, literal(-7)))
        CFI (cfiCond29) R7 load(1, XDATA, add(CFA_XSP16, literal(-6)))
        CFI (cfiCond29) ?RET_LOW load(1, XDATA, add(CFA_XSP16, literal(-5)))
        CFI (cfiCond29) ?RET_HIGH load(1, XDATA, add(CFA_XSP16, literal(-4)))
        CFI (cfiCond29) ?BRET_EXT load(1, XDATA, add(CFA_XSP16, literal(-3)))
        CFI (cfiCond29) DPL0 load(1, XDATA, add(CFA_XSP16, literal(-2)))
        CFI (cfiCond29) DPH0 load(1, XDATA, add(CFA_XSP16, literal(-1)))
        CFI (cfiCond29) CFA_SP SP+0
        CFI (cfiCond29) CFA_XSP16 add(XSP16, 12)
        CFI Block cfiPicker30 Using cfiCommon1
        CFI (cfiPicker30) NoFunction
        CFI (cfiPicker30) Picker
        MOV     R1,#0x0
        CFI EndBlock cfiCond28
        CFI EndBlock cfiCond29
        CFI EndBlock cfiPicker30
        REQUIRE ??Subroutine9_0
        ; // Fall through to label ??Subroutine9_0

        RSEG BANKED_CODE:CODE:NOROOT(0)
??Subroutine9_0:
        CFI Block cfiCond31 Using cfiCommon0
        CFI NoFunction
        CFI Conditional ??CrossCallReturnLabel_11
        CFI R6 load(1, XDATA, add(CFA_XSP16, literal(-9)))
        CFI VB load(1, XDATA, add(CFA_XSP16, literal(-8)))
        CFI V0 load(1, XDATA, add(CFA_XSP16, literal(-7)))
        CFI R7 load(1, XDATA, add(CFA_XSP16, literal(-6)))
        CFI ?RET_LOW load(1, XDATA, add(CFA_XSP16, literal(-5)))
        CFI ?RET_HIGH load(1, XDATA, add(CFA_XSP16, literal(-4)))
        CFI ?BRET_EXT load(1, XDATA, add(CFA_XSP16, literal(-3)))
        CFI DPL0 load(1, XDATA, add(CFA_XSP16, literal(-2)))
        CFI DPH0 load(1, XDATA, add(CFA_XSP16, literal(-1)))
        CFI CFA_SP SP+0
        CFI CFA_XSP16 add(XSP16, 9)
        CFI Block cfiCond32 Using cfiCommon0
        CFI (cfiCond32) NoFunction
        CFI (cfiCond32) Conditional ??CrossCallReturnLabel_12
        CFI (cfiCond32) R6 load(1, XDATA, add(CFA_XSP16, literal(-12)))
        CFI (cfiCond32) VB load(1, XDATA, add(CFA_XSP16, literal(-11)))
        CFI (cfiCond32) V0 load(1, XDATA, add(CFA_XSP16, literal(-10)))
        CFI (cfiCond32) V1 load(1, XDATA, add(CFA_XSP16, literal(-9)))
        CFI (cfiCond32) V2 load(1, XDATA, add(CFA_XSP16, literal(-8)))
        CFI (cfiCond32) V3 load(1, XDATA, add(CFA_XSP16, literal(-7)))
        CFI (cfiCond32) R7 load(1, XDATA, add(CFA_XSP16, literal(-6)))
        CFI (cfiCond32) ?RET_LOW load(1, XDATA, add(CFA_XSP16, literal(-5)))
        CFI (cfiCond32) ?RET_HIGH load(1, XDATA, add(CFA_XSP16, literal(-4)))
        CFI (cfiCond32) ?BRET_EXT load(1, XDATA, add(CFA_XSP16, literal(-3)))
        CFI (cfiCond32) DPL0 load(1, XDATA, add(CFA_XSP16, literal(-2)))
        CFI (cfiCond32) DPH0 load(1, XDATA, add(CFA_XSP16, literal(-1)))
        CFI (cfiCond32) CFA_SP SP+0
        CFI (cfiCond32) CFA_XSP16 add(XSP16, 12)
        CFI Block cfiCond33 Using cfiCommon0
        CFI (cfiCond33) NoFunction
        CFI (cfiCond33) Conditional ??CrossCallReturnLabel_10
        CFI (cfiCond33) R6 load(1, XDATA, add(CFA_XSP16, literal(-9)))
        CFI (cfiCond33) VB load(1, XDATA, add(CFA_XSP16, literal(-8)))
        CFI (cfiCond33) V0 load(1, XDATA, add(CFA_XSP16, literal(-7)))
        CFI (cfiCond33) R7 load(1, XDATA, add(CFA_XSP16, literal(-6)))
        CFI (cfiCond33) ?RET_LOW load(1, XDATA, add(CFA_XSP16, literal(-5)))
        CFI (cfiCond33) ?RET_HIGH load(1, XDATA, add(CFA_XSP16, literal(-4)))
        CFI (cfiCond33) ?BRET_EXT load(1, XDATA, add(CFA_XSP16, literal(-3)))
        CFI (cfiCond33) DPL0 load(1, XDATA, add(CFA_XSP16, literal(-2)))
        CFI (cfiCond33) DPH0 load(1, XDATA, add(CFA_XSP16, literal(-1)))
        CFI (cfiCond33) CFA_SP SP+0
        CFI (cfiCond33) CFA_XSP16 add(XSP16, 9)
        CFI Block cfiCond34 Using cfiCommon0
        CFI (cfiCond34) NoFunction
        CFI (cfiCond34) Conditional ??CrossCallReturnLabel_13
        CFI (cfiCond34) R6 load(1, XDATA, add(CFA_XSP16, literal(-12)))
        CFI (cfiCond34) VB load(1, XDATA, add(CFA_XSP16, literal(-11)))
        CFI (cfiCond34) V0 load(1, XDATA, add(CFA_XSP16, literal(-10)))
        CFI (cfiCond34) V1 load(1, XDATA, add(CFA_XSP16, literal(-9)))
        CFI (cfiCond34) V2 load(1, XDATA, add(CFA_XSP16, literal(-8)))
        CFI (cfiCond34) V3 load(1, XDATA, add(CFA_XSP16, literal(-7)))
        CFI (cfiCond34) R7 load(1, XDATA, add(CFA_XSP16, literal(-6)))
        CFI (cfiCond34) ?RET_LOW load(1, XDATA, add(CFA_XSP16, literal(-5)))
        CFI (cfiCond34) ?RET_HIGH load(1, XDATA, add(CFA_XSP16, literal(-4)))
        CFI (cfiCond34) ?BRET_EXT load(1, XDATA, add(CFA_XSP16, literal(-3)))
        CFI (cfiCond34) DPL0 load(1, XDATA, add(CFA_XSP16, literal(-2)))
        CFI (cfiCond34) DPH0 load(1, XDATA, add(CFA_XSP16, literal(-1)))
        CFI (cfiCond34) CFA_SP SP+0
        CFI (cfiCond34) CFA_XSP16 add(XSP16, 12)
        CFI Block cfiPicker35 Using cfiCommon1
        CFI (cfiPicker35) NoFunction
        CFI (cfiPicker35) Picker
        LCALL   ?Subroutine7 & 0xFFFF
??CrossCallReturnLabel_15:
        RET
        CFI EndBlock cfiCond31
        CFI EndBlock cfiCond32
        CFI EndBlock cfiCond33
        CFI EndBlock cfiCond34
        CFI EndBlock cfiPicker35

        RSEG BANKED_CODE:CODE:NOROOT(0)
?Subroutine7:
        CFI Block cfiCond36 Using cfiCommon0
        CFI NoFunction
        CFI Conditional ??CrossCallReturnLabel_14, ??CrossCallReturnLabel_2
        CFI R6 load(1, XDATA, add(CFA_XSP16, literal(-9)))
        CFI VB load(1, XDATA, add(CFA_XSP16, literal(-8)))
        CFI V0 load(1, XDATA, add(CFA_XSP16, literal(-7)))
        CFI R7 load(1, XDATA, add(CFA_XSP16, literal(-6)))
        CFI ?RET_LOW load(1, XDATA, add(CFA_XSP16, literal(-5)))
        CFI ?RET_HIGH load(1, XDATA, add(CFA_XSP16, literal(-4)))
        CFI ?BRET_EXT load(1, XDATA, add(CFA_XSP16, literal(-3)))
        CFI DPL0 load(1, XDATA, add(CFA_XSP16, literal(-2)))
        CFI DPH0 load(1, XDATA, add(CFA_XSP16, literal(-1)))
        CFI CFA_SP SP+0
        CFI CFA_XSP16 add(XSP16, 9)
        CFI Block cfiCond37 Using cfiCommon0
        CFI (cfiCond37) NoFunction
        CFI (cfiCond37) Conditional ??CrossCallReturnLabel_14, ??CrossCallReturnLabel_3
        CFI (cfiCond37) R6 load(1, XDATA, add(CFA_XSP16, literal(-9)))
        CFI (cfiCond37) VB load(1, XDATA, add(CFA_XSP16, literal(-8)))
        CFI (cfiCond37) V0 load(1, XDATA, add(CFA_XSP16, literal(-7)))
        CFI (cfiCond37) R7 load(1, XDATA, add(CFA_XSP16, literal(-6)))
        CFI (cfiCond37) ?RET_LOW load(1, XDATA, add(CFA_XSP16, literal(-5)))
        CFI (cfiCond37) ?RET_HIGH load(1, XDATA, add(CFA_XSP16, literal(-4)))
        CFI (cfiCond37) ?BRET_EXT load(1, XDATA, add(CFA_XSP16, literal(-3)))
        CFI (cfiCond37) DPL0 load(1, XDATA, add(CFA_XSP16, literal(-2)))
        CFI (cfiCond37) DPH0 load(1, XDATA, add(CFA_XSP16, literal(-1)))
        CFI (cfiCond37) CFA_SP SP+0
        CFI (cfiCond37) CFA_XSP16 add(XSP16, 9)
        CFI Block cfiCond38 Using cfiCommon0
        CFI (cfiCond38) NoFunction
        CFI (cfiCond38) Conditional ??CrossCallReturnLabel_15, ??CrossCallReturnLabel_10
        CFI (cfiCond38) R6 load(1, XDATA, add(CFA_XSP16, literal(-9)))
        CFI (cfiCond38) VB load(1, XDATA, add(CFA_XSP16, literal(-8)))
        CFI (cfiCond38) V0 load(1, XDATA, add(CFA_XSP16, literal(-7)))
        CFI (cfiCond38) R7 load(1, XDATA, add(CFA_XSP16, literal(-6)))
        CFI (cfiCond38) ?RET_LOW load(1, XDATA, add(CFA_XSP16, literal(-5)))
        CFI (cfiCond38) ?RET_HIGH load(1, XDATA, add(CFA_XSP16, literal(-4)))
        CFI (cfiCond38) ?BRET_EXT load(1, XDATA, add(CFA_XSP16, literal(-3)))
        CFI (cfiCond38) DPL0 load(1, XDATA, add(CFA_XSP16, literal(-2)))
        CFI (cfiCond38) DPH0 load(1, XDATA, add(CFA_XSP16, literal(-1)))
        CFI (cfiCond38) CFA_SP SP+0
        CFI (cfiCond38) CFA_XSP16 add(XSP16, 9)
        CFI Block cfiCond39 Using cfiCommon0
        CFI (cfiCond39) NoFunction
        CFI (cfiCond39) Conditional ??CrossCallReturnLabel_15, ??CrossCallReturnLabel_13
        CFI (cfiCond39) R6 load(1, XDATA, add(CFA_XSP16, literal(-12)))
        CFI (cfiCond39) VB load(1, XDATA, add(CFA_XSP16, literal(-11)))
        CFI (cfiCond39) V0 load(1, XDATA, add(CFA_XSP16, literal(-10)))
        CFI (cfiCond39) V1 load(1, XDATA, add(CFA_XSP16, literal(-9)))
        CFI (cfiCond39) V2 load(1, XDATA, add(CFA_XSP16, literal(-8)))
        CFI (cfiCond39) V3 load(1, XDATA, add(CFA_XSP16, literal(-7)))
        CFI (cfiCond39) R7 load(1, XDATA, add(CFA_XSP16, literal(-6)))
        CFI (cfiCond39) ?RET_LOW load(1, XDATA, add(CFA_XSP16, literal(-5)))
        CFI (cfiCond39) ?RET_HIGH load(1, XDATA, add(CFA_XSP16, literal(-4)))
        CFI (cfiCond39) ?BRET_EXT load(1, XDATA, add(CFA_XSP16, literal(-3)))
        CFI (cfiCond39) DPL0 load(1, XDATA, add(CFA_XSP16, literal(-2)))
        CFI (cfiCond39) DPH0 load(1, XDATA, add(CFA_XSP16, literal(-1)))
        CFI (cfiCond39) CFA_SP SP+0
        CFI (cfiCond39) CFA_XSP16 add(XSP16, 12)
        CFI Block cfiCond40 Using cfiCommon0
        CFI (cfiCond40) NoFunction
        CFI (cfiCond40) Conditional ??CrossCallReturnLabel_15, ??CrossCallReturnLabel_11
        CFI (cfiCond40) R6 load(1, XDATA, add(CFA_XSP16, literal(-9)))
        CFI (cfiCond40) VB load(1, XDATA, add(CFA_XSP16, literal(-8)))
        CFI (cfiCond40) V0 load(1, XDATA, add(CFA_XSP16, literal(-7)))
        CFI (cfiCond40) R7 load(1, XDATA, add(CFA_XSP16, literal(-6)))
        CFI (cfiCond40) ?RET_LOW load(1, XDATA, add(CFA_XSP16, literal(-5)))
        CFI (cfiCond40) ?RET_HIGH load(1, XDATA, add(CFA_XSP16, literal(-4)))
        CFI (cfiCond40) ?BRET_EXT load(1, XDATA, add(CFA_XSP16, literal(-3)))
        CFI (cfiCond40) DPL0 load(1, XDATA, add(CFA_XSP16, literal(-2)))
        CFI (cfiCond40) DPH0 load(1, XDATA, add(CFA_XSP16, literal(-1)))
        CFI (cfiCond40) CFA_SP SP+0
        CFI (cfiCond40) CFA_XSP16 add(XSP16, 9)
        CFI Block cfiCond41 Using cfiCommon0
        CFI (cfiCond41) NoFunction
        CFI (cfiCond41) Conditional ??CrossCallReturnLabel_15, ??CrossCallReturnLabel_12
        CFI (cfiCond41) R6 load(1, XDATA, add(CFA_XSP16, literal(-12)))
        CFI (cfiCond41) VB load(1, XDATA, add(CFA_XSP16, literal(-11)))
        CFI (cfiCond41) V0 load(1, XDATA, add(CFA_XSP16, literal(-10)))
        CFI (cfiCond41) V1 load(1, XDATA, add(CFA_XSP16, literal(-9)))
        CFI (cfiCond41) V2 load(1, XDATA, add(CFA_XSP16, literal(-8)))
        CFI (cfiCond41) V3 load(1, XDATA, add(CFA_XSP16, literal(-7)))
        CFI (cfiCond41) R7 load(1, XDATA, add(CFA_XSP16, literal(-6)))
        CFI (cfiCond41) ?RET_LOW load(1, XDATA, add(CFA_XSP16, literal(-5)))
        CFI (cfiCond41) ?RET_HIGH load(1, XDATA, add(CFA_XSP16, literal(-4)))
        CFI (cfiCond41) ?BRET_EXT load(1, XDATA, add(CFA_XSP16, literal(-3)))
        CFI (cfiCond41) DPL0 load(1, XDATA, add(CFA_XSP16, literal(-2)))
        CFI (cfiCond41) DPH0 load(1, XDATA, add(CFA_XSP16, literal(-1)))
        CFI (cfiCond41) CFA_SP SP+0
        CFI (cfiCond41) CFA_XSP16 add(XSP16, 12)
        CFI Block cfiPicker42 Using cfiCommon1
        CFI (cfiPicker42) NoFunction
        CFI (cfiPicker42) Picker
        LCALL   ??hali2cClock?relay
        ; Setup parameters for call to function hali2cWait
        ; Setup parameters for call to function hali2cWait
        ; Setup parameters for call to function hali2cWait
        ; Setup parameters for call to function hali2cWait
        ; Setup parameters for call to function hali2cWait
        ; Setup parameters for call to function hali2cWait
        MOV     R1,#0x1
        LCALL   hali2cWait & 0xFFFF
        RET
        CFI EndBlock cfiCond36
        CFI EndBlock cfiCond37
        CFI EndBlock cfiCond38
        CFI EndBlock cfiCond39
        CFI EndBlock cfiCond40
        CFI EndBlock cfiCond41
        CFI EndBlock cfiPicker42
//  427 /**************************************************************************************************
//  428 **************************************************************************************************/
//  429 /*********************************************************************
//  430  * @fn      hali2cReceive
//  431  * @brief   reads data into a buffer
//  432  * @param   address: linear address on part from which to read
//  433  * @param   buffer: target array for read characters
//  434  * @param   len: max number of characters to read
//  435  * @return  void
//  436  */
//  437 STATIC void hali2cReceive( uint8 address, uint8 *buffer, uint16 len )
//  438 {
//  439   //uint8  ch;
//  440   uint16 i;
//  441 
//  442   if (!len)  {
//  443     return;
//  444   }
//  445 
//  446   hali2cSendDeviceAddress(address);
//  447 
//  448   //ch = OCM_ADDRESS_BYTE(0, OCM_READ);
//  449   //hali2cSend(&ch, 1, SEND_START, NOSEND_STOP);
//  450 
//  451   for ( i = 0; i < len-1; i++ )
//  452   {
//  453     // SCL may be high. set SCL low. If SDA goes high when input
//  454     // mode is set the slave won't see a STOP
//  455     hali2cClock(0);
//  456     OCM_DATA_HIGH();
//  457 
//  458     buffer[i] = hali2cReceiveByte();
//  459     hali2cWrite(SMB_ACK);           // write leaves SCL high
//  460   }
//  461 
//  462   // condition SDA one more time...
//  463   hali2cClock(0);
//  464   OCM_DATA_HIGH();
//  465   buffer[i] = hali2cReceiveByte();
//  466   hali2cWrite(SMB_NAK);
//  467 
//  468   hali2cStop();
//  469 }
//  470 
//  471 /*********************************************************************
//  472  * @fn      hali2cRead
//  473  * @brief   Toggle the clock line to let the slave set the data line.
//  474  *          Then read the data line.
//  475  * @param   void
//  476  * @return  TRUE if bit read is 1 else FALSE
//  477  */
//  478 STATIC _Bool hali2cRead( void )
//  479 {
//  480   // SCL low to let slave set SDA. SCL high for SDA
//  481   // valid and then get bit
//  482   hali2cClock( 0 );
//  483   hali2cWait(1);
//  484   hali2cClock( 1 );
//  485   hali2cWait(1);
//  486 
//  487   return OCM_SDA;
//  488 }
//  489 
//  490 /*********************************************************************
//  491  * @fn      hali2cSendDeviceAddress
//  492  * @brief   Send onlythe device address. Do ack polling
//  493  *
//  494  * @param   void
//  495  * @return  none
//  496  */

        RSEG BANKED_CODE:CODE:NOROOT(0)
//  497 STATIC void hali2cSendDeviceAddress(uint8 address)
hali2cSendDeviceAddress:
        CFI Block cfiBlock43 Using cfiCommon0
        CFI Function hali2cSendDeviceAddress
//  498 {
        FUNCALL hali2cSendDeviceAddress, hali2cStart
        LOCFRAME ISTACK, 0, STACK
        LOCFRAME PSTACK, 0, STACK
        LOCFRAME XSTACK, 9, STACK
        LOCFRAME IOVERLAY, 0, STATIC
        LOCFRAME DOVERLAY, 0, STATIC
        ARGFRAME ISTACK, 0, STACK
        ARGFRAME PSTACK, 0, STACK
        ARGFRAME XSTACK, 9, STACK
        ARGFRAME IOVERLAY, 0, STATIC
        ARGFRAME DOVERLAY, 0, STATIC
        FUNCALL hali2cSendDeviceAddress, hali2cSendByte
        LOCFRAME ISTACK, 0, STACK
        LOCFRAME PSTACK, 0, STACK
        LOCFRAME XSTACK, 9, STACK
        LOCFRAME IOVERLAY, 0, STATIC
        LOCFRAME DOVERLAY, 0, STATIC
        ARGFRAME ISTACK, 0, STACK
        ARGFRAME PSTACK, 0, STACK
        ARGFRAME XSTACK, 9, STACK
        ARGFRAME IOVERLAY, 0, STATIC
        ARGFRAME DOVERLAY, 0, STATIC
        MOV     A,#-0x9
        LCALL   ?BANKED_ENTER_XDATA
        CFI DPH0 load(1, XDATA, add(CFA_XSP16, literal(-1)))
        CFI DPL0 load(1, XDATA, add(CFA_XSP16, literal(-2)))
        CFI ?BRET_EXT load(1, XDATA, add(CFA_XSP16, literal(-3)))
        CFI ?RET_HIGH load(1, XDATA, add(CFA_XSP16, literal(-4)))
        CFI ?RET_LOW load(1, XDATA, add(CFA_XSP16, literal(-5)))
        CFI R7 load(1, XDATA, add(CFA_XSP16, literal(-6)))
        CFI V0 load(1, XDATA, add(CFA_XSP16, literal(-7)))
        CFI VB load(1, XDATA, add(CFA_XSP16, literal(-8)))
        CFI R6 load(1, XDATA, add(CFA_XSP16, literal(-9)))
        CFI CFA_SP SP+0
        CFI CFA_XSP16 add(XSP16, 9)
        ; Saved register size: 9
        ; Auto size: 0
        MOV     A,R1
        MOV     R6,A
//  499   uint8 retry = HAL_I2C_RETRY_CNT;
        MOV     R7,#0x3
//  500 
//  501   do {
//  502     hali2cStart();
??hali2cSendDeviceAddress_0:
        ; Setup parameters for call to function hali2cStart
        LCALL   ??hali2cStart?relay
//  503     if (hali2cSendByte(address))  // do ack polling...
        ; Setup parameters for call to function hali2cSendByte
        MOV     A,R6
        MOV     R1,A
        LCALL   ??hali2cSendByte?relay
        JC      ??hali2cSendDeviceAddress_1
//  504     {
//  505       break;
//  506     }
//  507   } while ( --retry );
        DEC     R7
        MOV     A,R7
        JNZ     ??hali2cSendDeviceAddress_0
//  508 }
??hali2cSendDeviceAddress_1:
        LJMP    ?Subroutine1 & 0xFFFF
        CFI EndBlock cfiBlock43

        RSEG BANK_RELAYS:CODE:REORDER:NOROOT(0)
??HalI2CInit?relay:
        LCALL   ?BDISPATCH
        DATA
        DC24    HalI2CInit

        RSEG BANK_RELAYS:CODE:REORDER:NOROOT(0)
??HalI2CReceive?relay:
        LCALL   ?BDISPATCH
        DATA
        DC24    HalI2CReceive

        RSEG BANK_RELAYS:CODE:REORDER:NOROOT(0)
??HalI2CSend?relay:
        LCALL   ?BDISPATCH
        DATA
        DC24    HalI2CSend

        RSEG BANK_RELAYS:CODE:REORDER:NOROOT(0)
??hali2cSendByte?relay:
        LCALL   ?BDISPATCH
        DATA
        DC24    hali2cSendByte

        RSEG BANK_RELAYS:CODE:REORDER:NOROOT(0)
??hali2cWrite?relay:
        LCALL   ?BDISPATCH
        DATA
        DC24    hali2cWrite

        RSEG BANK_RELAYS:CODE:REORDER:NOROOT(0)
??hali2cClock?relay:
        LCALL   ?BDISPATCH
        DATA
        DC24    hali2cClock

        RSEG BANK_RELAYS:CODE:REORDER:NOROOT(0)
??hali2cStart?relay:
        LCALL   ?BDISPATCH
        DATA
        DC24    hali2cStart

        RSEG BANK_RELAYS:CODE:REORDER:NOROOT(0)
??hali2cStop?relay:
        LCALL   ?BDISPATCH
        DATA
        DC24    hali2cStop

        RSEG BANK_RELAYS:CODE:REORDER:NOROOT(0)
??hali2cReceiveByte?relay:
        LCALL   ?BDISPATCH
        DATA
        DC24    hali2cReceiveByte

        RSEG BANK_RELAYS:CODE:REORDER:NOROOT(0)
??hali2cSendDeviceAddress?relay:
        LCALL   ?BDISPATCH
        DATA
        DC24    hali2cSendDeviceAddress

        END
// 
// 526 bytes in segment BANKED_CODE
//  60 bytes in segment BANK_RELAYS
//   5 bytes in segment NEAR_CODE
//   5 bytes in segment SFR_AN
//   1 byte  in segment XDATA_Z
// 
// 591 bytes of CODE  memory
//   0 bytes of DATA  memory (+ 5 bytes shared)
//   1 byte  of XDATA memory
//
//Errors: none
//Warnings: none
